; ModuleID = '/home/users/massimo.perini/Documents/XOHW18/pynqteam/PYNQube/Vivado_HLS/RubikCubeSolver/RubikCube/.autopilot/db/a.g.bc'
target datalayout = "e-p:64:64:64-i1:8:8-i8:8:8-i16:16:16-i32:32:32-i64:64:64-f32:32:32-f64:64:64-v64:64:64-v128:128:128-a0:0:64-s0:64:64-f80:128:128-n8:16:32:64-S128"
target triple = "x86_64-unknown-linux-gnu"

%"class.std::ios_base::Init" = type {}
%"class.std::basic_ostream" = type { i32 (...)**, %"class.std::basic_ios" }
%"class.std::basic_ios" = type { %"class.std::ios_base", %"class.std::basic_ostream"*, i8, i1, %"class.std::basic_streambuf"*, %"class.std::ctype"*, %"class.std::num_put"*, %"class.std::num_get"* }
%"class.std::ios_base" = type { i32 (...)**, i64, i64, i17, i17, i17, %"struct.std::ios_base::_Callback_list"*, %"struct.std::ios_base::_Words", [8 x %"struct.std::ios_base::_Words"], i32, %"struct.std::ios_base::_Words"*, %"class.std::locale" }
%"struct.std::ios_base::_Callback_list" = type { %"struct.std::ios_base::_Callback_list"*, void (i2, %"class.std::ios_base"*, i32)*, i32, i32 }
%"struct.std::ios_base::_Words" = type { i8*, i64 }
%"class.std::locale" = type { %"class.std::locale::_Impl"* }
%"class.std::locale::_Impl" = type { i32, %"class.std::locale::facet"**, i64, %"class.std::locale::facet"**, i8** }
%"class.std::locale::facet" = type { i32 (...)**, i32 }
%"class.std::basic_streambuf" = type { i32 (...)**, i8*, i8*, i8*, i8*, i8*, i8*, %"class.std::locale" }
%"class.std::ctype" = type { %"class.std::locale::facet", %struct.__locale_struct*, i1, i32*, i32*, i16*, i8, [256 x i8], [256 x i8], i8 }
%struct.__locale_struct = type { [13 x %"class.std::ios_base::Init"*], i16*, i32*, i32*, [13 x i8*] }
%"class.std::num_put" = type { %"class.std::locale::facet" }
%"class.std::num_get" = type { %"class.std::locale::facet" }
%"class.std::locale::id" = type { i64 }
%"class.std::basic_istream" = type { i32 (...)**, i64, %"class.std::basic_ios" }
%"class.std::basic_istream.0" = type { i32 (...)**, i64, %"class.std::basic_ios.2" }
%"class.std::basic_ios.2" = type { %"class.std::ios_base", %"class.std::basic_ostream.3"*, i32, i1, %"class.std::basic_streambuf.4"*, %"class.std::ctype.5"*, %"class.std::num_put.6"*, %"class.std::num_get.7"* }
%"class.std::basic_ostream.3" = type { i32 (...)**, %"class.std::basic_ios.2" }
%"class.std::basic_streambuf.4" = type { i32 (...)**, i32*, i32*, i32*, i32*, i32*, i32*, %"class.std::locale" }
%"class.std::ctype.5" = type { %"class.std::__ctype_abstract_base", %struct.__locale_struct*, i1, [128 x i8], [256 x i32], [16 x i16], [16 x i64] }
%"class.std::__ctype_abstract_base" = type { %"class.std::locale::facet" }
%"class.std::num_put.6" = type { %"class.std::locale::facet" }
%"class.std::num_get.7" = type { %"class.std::locale::facet" }
%struct._IO_FILE_plus = type opaque
%struct._IO_FILE = type { i32, i8*, i8*, i8*, i8*, i8*, i8*, i8*, i8*, i8*, i8*, i8*, %struct._IO_marker*, %struct._IO_FILE*, i32, i32, i64, i16, i8, [1 x i8], i8*, i64, i8*, i8*, i8*, i8*, i64, i32, [20 x i8] }
%struct._IO_marker = type { %struct._IO_marker*, %struct._IO_FILE*, i32 }
%"class.std::basic_string" = type { %"struct.std::basic_string<char, std::char_traits<char>, std::allocator<char> >::_Alloc_hider" }
%"struct.std::basic_string<char, std::char_traits<char>, std::allocator<char> >::_Alloc_hider" = type { i8* }
%class.Table = type { i32, i32, i8* }
%class.RubikSolver = type { i32, i32, i32, i32, i32, i32, [32 x i32], [32 x i32], [576 x %class.RubikCube], [576 x %class.RubikCube], [576 x i32], [576 x i32], [32 x i32], [32 x i32], [32 x i32], [32 x i32], i32, i32, i32, %class.RubikCube, %class.Table, %class.Table, %class.Table, %class.Table, %class.Table }
%class.RubikCube = type { %class.Cube }
%class.Cube = type { i32 (...)**, [8 x i32], [8 x i32], [12 x i32], [12 x i32] }
%class.Cube.96 = type { [8 x i32], [8 x i32], [12 x i32], [12 x i32] }
%class.ColorCube = type { [54 x i8], [7 x i8], [8 x i32], [8 x i32], [12 x i32], [12 x i32] }
%"class.std::allocator" = type {}
%"class.std::basic_ifstream" = type { %"class.std::basic_istream.base", %"class.std::basic_filebuf", %"class.std::basic_ios" }
%"class.std::basic_istream.base" = type { i32 (...)**, i64 }
%"class.std::basic_filebuf" = type { %"class.std::basic_streambuf", %union.pthread_mutex_t, %"class.std::__basic_file", i17, %struct.__mbstate_t, %struct.__mbstate_t, %struct.__mbstate_t, i8*, i64, i1, i1, i1, i8, i8*, i8*, i1, %"class.std::codecvt"*, i8*, i64, i8*, i8* }
%union.pthread_mutex_t = type { %"struct.<anonymous union>::__pthread_mutex_s" }
%"struct.<anonymous union>::__pthread_mutex_s" = type { i32, i32, i32, i32, i32, i16, i16, %struct.__pthread_internal_list }
%struct.__pthread_internal_list = type { %struct.__pthread_internal_list*, %struct.__pthread_internal_list* }
%"class.std::__basic_file" = type { %struct._IO_FILE*, i1 }
%struct.__mbstate_t = type { i32, %union.anon }
%union.anon = type { i32 }
%"class.std::codecvt" = type { %"class.std::__codecvt_abstract_base", %struct.__locale_struct* }
%"class.std::__codecvt_abstract_base" = type { %"class.std::locale::facet" }
%"struct.std::_Setw" = type { i32 }

@_ZStL8__ioinit = internal global %"class.std::ios_base::Init" zeroinitializer, align 1 ; [#uses=2 type=%"class.std::ios_base::Init"*]
@_ZSt4cout = external global %"class.std::basic_ostream" ; [#uses=31 type=%"class.std::basic_ostream"*]
@.str = private unnamed_addr constant [3 x i8] c"[ \00", align 1 ; [#uses=1 type=[3 x i8]*]
@.str1 = private unnamed_addr constant [3 x i8] c", \00", align 1 ; [#uses=1 type=[3 x i8]*]
@.str2 = private unnamed_addr constant [3 x i8] c" ]\00", align 1 ; [#uses=1 type=[3 x i8]*]
@_ZN9__gnu_cxx24__numeric_traits_integer11__is_signedE = external constant i1 ; [#uses=0 type=i1*]
@_ZN9__gnu_cxx24__numeric_traits_integer8__digitsE = external constant i32 ; [#uses=0 type=i32*]
@_ZN9__gnu_cxx25__numeric_traits_floating14__max_digits10E = external constant i32 ; [#uses=0 type=i32*]
@_ZN9__gnu_cxx25__numeric_traits_floating11__is_signedE = external constant i1 ; [#uses=0 type=i1*]
@_ZN9__gnu_cxx25__numeric_traits_floating10__digits10E = external constant i32 ; [#uses=0 type=i32*]
@_ZN9__gnu_cxx25__numeric_traits_floating16__max_exponent10E = external constant i32 ; [#uses=0 type=i32*]
@_ZSt7nothrow = external global %"class.std::ios_base::Init" ; [#uses=0 type=%"class.std::ios_base::Init"*]
@__daylight = external global i32                 ; [#uses=0 type=i32*]
@__timezone = external global i64                 ; [#uses=0 type=i64*]
@daylight = external global i32                   ; [#uses=0 type=i32*]
@timezone = external global i64                   ; [#uses=0 type=i64*]
@getdate_err = external global i32                ; [#uses=0 type=i32*]
@__environ = external global i8**                 ; [#uses=0 type=i8***]
@environ = external global i8**                   ; [#uses=0 type=i8***]
@optarg = external global i8*                     ; [#uses=0 type=i8**]
@optind = external global i32                     ; [#uses=0 type=i32*]
@opterr = external global i32                     ; [#uses=0 type=i32*]
@optopt = external global i32                     ; [#uses=0 type=i32*]
@_ZNSt6locale10_S_classicE = external global %"class.std::locale::_Impl"* ; [#uses=0 type=%"class.std::locale::_Impl"**]
@_ZNSt6locale9_S_globalE = external global %"class.std::locale::_Impl"* ; [#uses=0 type=%"class.std::locale::_Impl"**]
@_ZNSt6locale7_S_onceE = external global i32      ; [#uses=0 type=i32*]
@_ZNSt6locale5facet11_S_c_localeE = external global %struct.__locale_struct* ; [#uses=0 type=%struct.__locale_struct**]
@_ZNSt6locale5facet7_S_onceE = external global i32 ; [#uses=0 type=i32*]
@_ZNSt6locale2id11_S_refcountE = external global i32 ; [#uses=0 type=i32*]
@_ZNSt7collate2idE = external global %"class.std::locale::id" ; [#uses=0 type=%"class.std::locale::id"*]
@_ZNSt8ios_base4Init11_S_refcountE = external global i32 ; [#uses=0 type=i32*]
@_ZNSt8ios_base4Init20_S_synced_with_stdioE = external global i1 ; [#uses=0 type=i1*]
@_ZNSt5ctype2idE = external global %"class.std::locale::id" ; [#uses=0 type=%"class.std::locale::id"*]
@_ZNSt5ctypeIcE2idE = external global %"class.std::locale::id" ; [#uses=0 type=%"class.std::locale::id"*]
@_ZNSt5ctypeIwE2idE = external global %"class.std::locale::id" ; [#uses=0 type=%"class.std::locale::id"*]
@_ZNSt10__num_base12_S_atoms_outE = external global i8* ; [#uses=0 type=i8**]
@_ZNSt10__num_base11_S_atoms_inE = external global i8* ; [#uses=0 type=i8**]
@_ZNSt8numpunct2idE = external global %"class.std::locale::id" ; [#uses=0 type=%"class.std::locale::id"*]
@_ZNSt7num_get2idE = external global %"class.std::locale::id" ; [#uses=0 type=%"class.std::locale::id"*]
@_ZNSt7num_put2idE = external global %"class.std::locale::id" ; [#uses=0 type=%"class.std::locale::id"*]
@_ZSt3cin = external global %"class.std::basic_istream" ; [#uses=0 type=%"class.std::basic_istream"*]
@_ZSt4cerr = external global %"class.std::basic_ostream" ; [#uses=0 type=%"class.std::basic_ostream"*]
@_ZSt4clog = external global %"class.std::basic_ostream" ; [#uses=0 type=%"class.std::basic_ostream"*]
@_ZSt4wcin = external global %"class.std::basic_istream.0" ; [#uses=0 type=%"class.std::basic_istream.0"*]
@_ZSt5wcout = external global %"class.std::basic_ostream.3" ; [#uses=0 type=%"class.std::basic_ostream.3"*]
@_ZSt5wcerr = external global %"class.std::basic_ostream.3" ; [#uses=0 type=%"class.std::basic_ostream.3"*]
@_ZSt5wclog = external global %"class.std::basic_ostream.3" ; [#uses=0 type=%"class.std::basic_ostream.3"*]
@llvm.global_ctors = appending global [5 x { i32, void ()* }] [{ i32, void ()* } { i32 65535, void ()* @_GLOBAL__I_a }, { i32, void ()* } { i32 65535, void ()* @_GLOBAL__I_a5 }, { i32, void ()* } { i32 65535, void ()* @_GLOBAL__I_a12 }, { i32, void ()* } { i32 65535, void ()* @_GLOBAL__I_a29 }, { i32, void ()* } { i32 65535, void ()* @_GLOBAL__I_a94 }] ; [#uses=0 type=[5 x { i32, void ()* }]*]
@_ZStL8__ioinit1 = internal global %"class.std::ios_base::Init" zeroinitializer, align 1 ; [#uses=2 type=%"class.std::ios_base::Init"*]
@_ZNSt7codecvt2idE = external global %"class.std::locale::id" ; [#uses=0 type=%"class.std::locale::id"*]
@_ZNSt7codecvtIcc11__mbstate_tE2idE = external global %"class.std::locale::id" ; [#uses=0 type=%"class.std::locale::id"*]
@_ZNSt7codecvtIwc11__mbstate_tE2idE = external global %"class.std::locale::id" ; [#uses=0 type=%"class.std::locale::id"*]
@_IO_2_1_stdin_ = external global %struct._IO_FILE_plus ; [#uses=0 type=%struct._IO_FILE_plus*]
@_IO_2_1_stdout_ = external global %struct._IO_FILE_plus ; [#uses=0 type=%struct._IO_FILE_plus*]
@_IO_2_1_stderr_ = external global %struct._IO_FILE_plus ; [#uses=0 type=%struct._IO_FILE_plus*]
@sys_nerr = external global i32                   ; [#uses=0 type=i32*]
@_sys_nerr = external global i32                  ; [#uses=0 type=i32*]
@_ZStL8__ioinit6 = internal global %"class.std::ios_base::Init" zeroinitializer, align 1 ; [#uses=2 type=%"class.std::ios_base::Init"*]
@.str7 = private unnamed_addr constant [8 x i8] c"Loading\00", align 1 ; [#uses=1 type=[8 x i8]*]
@_ZN5Table17offsetToEntryMaskE = global [2 x i32] [i32 15, i32 240], align 4 ; [#uses=1 type=[2 x i32]*]
@_ZN5Table18offsetToShiftCountE = global [2 x i32] [i32 0, i32 4], align 4 ; [#uses=1 type=[2 x i32]*]
@.str18 = private unnamed_addr constant [3 x i8] c": \00", align 1 ; [#uses=1 type=[3 x i8]*]
@stdin = external global %struct._IO_FILE*        ; [#uses=0 type=%struct._IO_FILE**]
@stdout = external global %struct._IO_FILE*       ; [#uses=0 type=%struct._IO_FILE**]
@stderr = external global %struct._IO_FILE*       ; [#uses=0 type=%struct._IO_FILE**]
@_ZStL8__ioinit13 = internal global %"class.std::ios_base::Init" zeroinitializer, align 1 ; [#uses=2 type=%"class.std::ios_base::Init"*]
@.str14 = private unnamed_addr constant [38 x i8] c"Initializing TwistAndFlipPruningTable\00", align 1 ; [#uses=1 type=[38 x i8]*]
@.str115 = private unnamed_addr constant [24 x i8] c"table_data/TwstFlip.ptb\00", align 1 ; [#uses=1 type=[24 x i8]*]
@.str216 = private unnamed_addr constant [8 x i8] c"Size = \00", align 1 ; [#uses=1 type=[8 x i8]*]
@.str3 = private unnamed_addr constant [40 x i8] c"Initializing TwistAndChoicePruningTable\00", align 1 ; [#uses=1 type=[40 x i8]*]
@.str4 = private unnamed_addr constant [24 x i8] c"table_data/TwstChce.ptb\00", align 1 ; [#uses=1 type=[24 x i8]*]
@.str5 = private unnamed_addr constant [39 x i8] c"Initializing FlipAndChoicePruningTable\00", align 1 ; [#uses=1 type=[39 x i8]*]
@.str6 = private unnamed_addr constant [24 x i8] c"table_data/FlipChce.ptb\00", align 1 ; [#uses=1 type=[24 x i8]*]
@.str717 = private unnamed_addr constant [40 x i8] c"Initializing CornerAndSlicePruningTable\00", align 1 ; [#uses=1 type=[40 x i8]*]
@.str8 = private unnamed_addr constant [24 x i8] c"table_data/CrnrSlic.ptb\00", align 1 ; [#uses=1 type=[24 x i8]*]
@.str9 = private unnamed_addr constant [38 x i8] c"Initializing EdgeAndSlicePruningTable\00", align 1 ; [#uses=1 type=[38 x i8]*]
@.str10 = private unnamed_addr constant [24 x i8] c"table_data/EdgeSlic.ptb\00", align 1 ; [#uses=1 type=[24 x i8]*]
@.str11 = private unnamed_addr constant [11 x i8] c"threshold(\00", align 1 ; [#uses=1 type=[11 x i8]*]
@.str12 = private unnamed_addr constant [5 x i8] c") = \00", align 1 ; [#uses=1 type=[5 x i8]*]
@.str13 = private unnamed_addr constant [17 x i8] c"Phase 1 nodes = \00", align 1 ; [#uses=1 type=[17 x i8]*]
@.str1418 = private unnamed_addr constant [8 x i8] c"PHASE 1\00", align 1 ; [#uses=1 type=[8 x i8]*]
@.str15 = private unnamed_addr constant [2 x i8] c" \00", align 1 ; [#uses=1 type=[2 x i8]*]
@.str16 = private unnamed_addr constant [8 x i8] c"PHASE 2\00", align 1 ; [#uses=1 type=[8 x i8]*]
@_ZZN11RubikSolver17generateChildren2E9RubikCubeiE6rightL = private unnamed_addr constant [10 x i32] [i32 12, i32 13, i32 2, i32 3, i32 14, i32 15, i32 8, i32 9, i32 16, i32 17], align 16 ; [#uses=1 type=[10 x i32]*]
@.str17 = private unnamed_addr constant [9 x i8] c"Error!!!\00", align 1 ; [#uses=1 type=[9 x i8]*]
@.str1819 = private unnamed_addr constant [3 x i8] c". \00", align 1 ; [#uses=1 type=[3 x i8]*]
@.str19 = private unnamed_addr constant [2 x i8] c"(\00", align 1 ; [#uses=1 type=[2 x i8]*]
@.str20 = private unnamed_addr constant [2 x i8] c")\00", align 1 ; [#uses=1 type=[2 x i8]*]
@.str21 = private unnamed_addr constant [4 x i8] c"end\00", align 1 ; [#uses=1 type=[4 x i8]*]
@_ZTV4Cube = external unnamed_addr constant [10 x i8*] ; [#uses=1 type=[10 x i8*]*]
@_ZTV9RubikCube = unnamed_addr constant [11 x i8*] [i8* null, i8* bitcast ({ i8*, i8*, i8* }* @_ZTI9RubikCube to i8*), i8* bitcast (void (%class.RubikCube*)* @_ZN9RubikCubeD1Ev to i8*), i8* bitcast (void (%class.RubikCube*)* @_ZN9RubikCubeD0Ev to i8*), i8* bitcast (void (%class.Cube.96*)* @_ZN4Cube9resetCubeEv to i8*), i8* bitcast (void (%class.Cube.96*, i32*, i32*, i32*, i32*)* @_ZN4Cube8setStateEPiS0_S0_S0_ to i8*), i8* bitcast (void (%class.Cube.96*, i32)* @_ZN4Cube11executeMoveEi to i8*), i8* bitcast (void (%class.Cube.96*, %class.Cube.96*)* @_ZN4Cube11getChildrenEPS_ to i8*), i8* bitcast (void (%class.RubikCube*, i32*)* @_ZN9RubikCube16getChildrenLabelEPi to i8*), i8* bitcast (void (%class.Cube.96*)* @_ZN4Cube8toStringEv to i8*), i8* bitcast (void (%class.RubikCube*, %class.RubikCube*)* @_ZN9RubikCube11getChildrenEPS_ to i8*)] ; [#uses=1 type=[11 x i8*]*]
@_ZTVN10__cxxabiv120__si_class_type_infoE = external global i8* ; [#uses=1 type=i8**]
@_ZTS9RubikCube = constant [11 x i8] c"9RubikCube\00" ; [#uses=1 type=[11 x i8]*]
@_ZTI4Cube = external constant i8*                ; [#uses=1 type=i8**]
@_ZTI9RubikCube = unnamed_addr constant { i8*, i8*, i8* } { i8* bitcast (i8** getelementptr inbounds (i8** @_ZTVN10__cxxabiv120__si_class_type_infoE, i64 2) to i8*), i8* getelementptr inbounds ([11 x i8]* @_ZTS9RubikCube, i32 0, i32 0), i8* bitcast (i8** @_ZTI4Cube to i8*) } ; [#uses=1 type={ i8*, i8*, i8* }*]
@_ZN4Cube13oppositeFacesE = global [18 x i5] [i5 1, i5 0, i5 3, i5 2, i5 5, i5 4, i5 0, i5 0, i5 0, i5 0, i5 0, i5 0, i5 0, i5 0, i5 0, i5 0, i5 0, i5 0], align 16 ; [#uses=1 type=[18 x i5]*]
@_ZN4Cube9moveNamesE = global [18 x %"class.std::basic_string"] zeroinitializer, align 16 ; [#uses=21 type=[18 x %"class.std::basic_string"]*]
@_ZN4Cube15clockwiseTwistsE = global [3 x i32] [i32 1, i32 2, i32 0], align 4 ; [#uses=1 type=[3 x i32]*]
@_ZN4Cube22counterClockwiseTwistsE = global [3 x i32] [i32 2, i32 0, i32 1], align 4 ; [#uses=1 type=[3 x i32]*]
@.str56 = private unnamed_addr constant [2 x i8] c"R\00", align 1 ; [#uses=1 type=[2 x i8]*]
@.str157 = private unnamed_addr constant [2 x i8] c"L\00", align 1 ; [#uses=1 type=[2 x i8]*]
@.str258 = private unnamed_addr constant [2 x i8] c"U\00", align 1 ; [#uses=1 type=[2 x i8]*]
@.str359 = private unnamed_addr constant [2 x i8] c"D\00", align 1 ; [#uses=1 type=[2 x i8]*]
@.str460 = private unnamed_addr constant [2 x i8] c"F\00", align 1 ; [#uses=1 type=[2 x i8]*]
@.str561 = private unnamed_addr constant [2 x i8] c"B\00", align 1 ; [#uses=1 type=[2 x i8]*]
@.str662 = private unnamed_addr constant [3 x i8] c"R'\00", align 1 ; [#uses=1 type=[3 x i8]*]
@.str763 = private unnamed_addr constant [3 x i8] c"L'\00", align 1 ; [#uses=1 type=[3 x i8]*]
@.str864 = private unnamed_addr constant [3 x i8] c"U'\00", align 1 ; [#uses=1 type=[3 x i8]*]
@.str965 = private unnamed_addr constant [3 x i8] c"D'\00", align 1 ; [#uses=1 type=[3 x i8]*]
@.str1066 = private unnamed_addr constant [3 x i8] c"F'\00", align 1 ; [#uses=1 type=[3 x i8]*]
@.str1167 = private unnamed_addr constant [3 x i8] c"B'\00", align 1 ; [#uses=1 type=[3 x i8]*]
@.str1268 = private unnamed_addr constant [3 x i8] c"R2\00", align 1 ; [#uses=1 type=[3 x i8]*]
@.str1369 = private unnamed_addr constant [3 x i8] c"L2\00", align 1 ; [#uses=1 type=[3 x i8]*]
@.str1470 = private unnamed_addr constant [3 x i8] c"U2\00", align 1 ; [#uses=1 type=[3 x i8]*]
@.str1571 = private unnamed_addr constant [3 x i8] c"D2\00", align 1 ; [#uses=1 type=[3 x i8]*]
@.str1672 = private unnamed_addr constant [3 x i8] c"F2\00", align 1 ; [#uses=1 type=[3 x i8]*]
@.str1773 = private unnamed_addr constant [3 x i8] c"B2\00", align 1 ; [#uses=1 type=[3 x i8]*]
@_ZN9ColorCube14cornerFaceletsE = global [8 x [3 x i32]] [[3 x i32] [i32 8, i32 27, i32 38], [3 x i32] [i32 6, i32 36, i32 20], [3 x i32] [i32 0, i32 18, i32 47], [3 x i32] [i32 2, i32 45, i32 29], [3 x i32] [i32 11, i32 44, i32 33], [3 x i32] [i32 9, i32 26, i32 42], [3 x i32] [i32 15, i32 53, i32 24], [3 x i32] [i32 17, i32 35, i32 51]], align 16 ; [#uses=3 type=[8 x [3 x i32]]*]
@_ZN9ColorCube9cornerMapE = global [24 x i8] c"\16\84\93\1A\9CL\11f\B6!\C6q?\A3v4a\98D\C1S;\8B\BD", align 16 ; [#uses=1 type=[24 x i8]*]
@_ZN9ColorCube12edgeFaceletsE = global [12 x [2 x i32]] [[2 x i32] [i32 7, i32 37], [2 x i32] [i32 3, i32 19], [2 x i32] [i32 1, i32 46], [2 x i32] [i32 5, i32 28], [2 x i32] [i32 10, i32 43], [2 x i32] [i32 12, i32 25], [2 x i32] [i32 16, i32 52], [2 x i32] [i32 14, i32 34], [2 x i32] [i32 30, i32 41], [2 x i32] [i32 23, i32 39], [2 x i32] [i32 21, i32 50], [2 x i32] [i32 32, i32 48]], align 16 ; [#uses=2 type=[12 x [2 x i32]]*]
@_ZN9ColorCube7edgeMapE = global [24 x i6] [i6 4, i6 24, i6 2, i6 12, i6 5, i6 30, i6 3, i6 18, i6 10, i6 25, i6 8, i6 13, i6 11, i6 31, i6 9, i6 19, i6 22, i6 27, i6 16, i6 26, i6 17, i6 -32, i6 23, i6 -31], align 16 ; [#uses=1 type=[24 x i6]*]
@_ZZN9ColorCube16faceNameToOffsetEcE9faceNames = internal global i8* getelementptr inbounds ([7 x i8]* @.str95, i32 0, i32 0), align 8 ; [#uses=2 type=i8**]
@.str95 = private unnamed_addr constant [7 x i8] c"UDLRFB\00", align 1 ; [#uses=1 type=[7 x i8]*]

@_ZN5TableC1Eii = alias void (%class.Table*, i32, i32)* @_ZN5TableC2Eii ; [#uses=5 type=void (%class.Table*, i32, i32)*]
@_ZN5TableD1Ev = alias void (%class.Table*)* @_ZN5TableD2Ev ; [#uses=5 type=void (%class.Table*)*]
@_ZN11RubikSolverC1Ev = alias void (%class.RubikSolver*)* @_ZN11RubikSolverC2Ev ; [#uses=1 type=void (%class.RubikSolver*)*]
@_ZN11RubikSolverD1Ev = alias void (%class.RubikSolver*)* @_ZN11RubikSolverD2Ev ; [#uses=1 type=void (%class.RubikSolver*)*]
@_ZN9RubikCubeC1Ev = alias void (%class.RubikCube*)* @_ZN9RubikCubeC2Ev ; [#uses=6 type=void (%class.RubikCube*)*]
@_ZN9RubikCubeC1EPS_ = alias void (%class.RubikCube*, %class.RubikCube*)* @_ZN9RubikCubeC2EPS_ ; [#uses=1 type=void (%class.RubikCube*, %class.RubikCube*)*]
@_ZN9RubikCubeD1Ev = alias void (%class.RubikCube*)* @_ZN9RubikCubeD2Ev ; [#uses=16 type=void (%class.RubikCube*)*]
@_ZN4CubeC1Ev = alias void (%class.Cube.96*)* @_ZN4CubeC2Ev ; [#uses=0 type=void (%class.Cube.96*)*]
@_ZN4CubeD1Ev = alias void (%class.Cube.96*)* @_ZN4CubeD2Ev ; [#uses=1 type=void (%class.Cube.96*)*]
@_ZN4CubeC1EPS_ = alias void (%class.Cube.96*, %class.Cube.96*)* @_ZN4CubeC2EPS_ ; [#uses=1 type=void (%class.Cube.96*, %class.Cube.96*)*]
@_ZN9ColorCubeC1Ev = alias void (%class.ColorCube*)* @_ZN9ColorCubeC2Ev ; [#uses=1 type=void (%class.ColorCube*)*]
@_ZN9ColorCubeD1Ev = alias void (%class.ColorCube*)* @_ZN9ColorCubeD2Ev ; [#uses=1 type=void (%class.ColorCube*)*]

; [#uses=1]
define internal void @__cxx_global_var_init() nounwind section ".text.startup" {
  call void @_ZNSt8ios_base4InitC1Ev(%"class.std::ios_base::Init"* @_ZStL8__ioinit)
  %1 = call i32 @atexit(void ()* @__dtor__ZStL8__ioinit) ; [#uses=0 type=i32]
  ret void
}

; [#uses=4]
declare void @_ZNSt8ios_base4InitC1Ev(%"class.std::ios_base::Init"*)

; [#uses=4]
declare void @_ZNSt8ios_base4InitD1Ev(%"class.std::ios_base::Init"*)

; [#uses=1]
define internal void @__dtor__ZStL8__ioinit() nounwind section ".text.startup" {
  call void @_ZNSt8ios_base4InitD1Ev(%"class.std::ios_base::Init"* @_ZStL8__ioinit)
  ret void
}

; [#uses=5]
declare i32 @atexit(void ()*) nounwind

; [#uses=8]
define void @_Z10printArrayPii(i32* %vector, i32 %n) nounwind uwtable {
  %1 = alloca i32*, align 8                       ; [#uses=2 type=i32**]
  %2 = alloca i32, align 4                        ; [#uses=2 type=i32*]
  %i = alloca i32, align 4                        ; [#uses=5 type=i32*]
  store i32* %vector, i32** %1, align 8
  call void @llvm.dbg.declare(metadata !{i32** %1}, metadata !13552), !dbg !13553 ; [debug line = 17:22] [debug variable = vector]
  store i32 %n, i32* %2, align 4
  call void @llvm.dbg.declare(metadata !{i32* %2}, metadata !13554), !dbg !13555 ; [debug line = 17:34] [debug variable = n]
  %3 = call %"class.std::basic_ostream"* @_ZStlsISt11char_traitsIcEERSt13basic_ostreamIcT_ES5_PKc(%"class.std::basic_ostream"* @_ZSt4cout, i8* getelementptr inbounds ([3 x i8]* @.str, i32 0, i32 0)), !dbg !13556 ; [#uses=0 type=%"class.std::basic_ostream"*] [debug line = 18:5]
  call void @llvm.dbg.declare(metadata !{i32* %i}, metadata !13558), !dbg !13560 ; [debug line = 19:13] [debug variable = i]
  store i32 0, i32* %i, align 4, !dbg !13561      ; [debug line = 19:18]
  br label %4, !dbg !13561                        ; [debug line = 19:18]

; <label>:4                                       ; preds = %16, %0
  %5 = load i32* %i, align 4, !dbg !13561         ; [#uses=1 type=i32] [debug line = 19:18]
  %6 = load i32* %2, align 4, !dbg !13561         ; [#uses=1 type=i32] [debug line = 19:18]
  %7 = icmp slt i32 %5, %6, !dbg !13561           ; [#uses=1 type=i1] [debug line = 19:18]
  br i1 %7, label %8, label %19, !dbg !13561      ; [debug line = 19:18]

; <label>:8                                       ; preds = %4
  %9 = load i32* %i, align 4, !dbg !13562         ; [#uses=1 type=i32] [debug line = 20:9]
  %10 = sext i32 %9 to i64, !dbg !13562           ; [#uses=1 type=i64] [debug line = 20:9]
  %11 = load i32** %1, align 8, !dbg !13562       ; [#uses=1 type=i32*] [debug line = 20:9]
  %12 = getelementptr inbounds i32* %11, i64 %10, !dbg !13562 ; [#uses=1 type=i32*] [debug line = 20:9]
  %13 = load i32* %12, align 4, !dbg !13562       ; [#uses=1 type=i32] [debug line = 20:9]
  %14 = call %"class.std::basic_ostream"* @_ZNSolsEi(%"class.std::basic_ostream"* @_ZSt4cout, i32 %13), !dbg !13562 ; [#uses=1 type=%"class.std::basic_ostream"*] [debug line = 20:9]
  %15 = call %"class.std::basic_ostream"* @_ZStlsISt11char_traitsIcEERSt13basic_ostreamIcT_ES5_PKc(%"class.std::basic_ostream"* %14, i8* getelementptr inbounds ([3 x i8]* @.str1, i32 0, i32 0)), !dbg !13562 ; [#uses=0 type=%"class.std::basic_ostream"*] [debug line = 20:9]
  br label %16, !dbg !13562                       ; [debug line = 20:9]

; <label>:16                                      ; preds = %8
  %17 = load i32* %i, align 4, !dbg !13563        ; [#uses=1 type=i32] [debug line = 19:27]
  %18 = add nsw i32 %17, 1, !dbg !13563           ; [#uses=1 type=i32] [debug line = 19:27]
  store i32 %18, i32* %i, align 4, !dbg !13563    ; [debug line = 19:27]
  br label %4, !dbg !13563                        ; [debug line = 19:27]

; <label>:19                                      ; preds = %4
  %20 = call %"class.std::basic_ostream"* @_ZStlsISt11char_traitsIcEERSt13basic_ostreamIcT_ES5_PKc(%"class.std::basic_ostream"* @_ZSt4cout, i8* getelementptr inbounds ([3 x i8]* @.str2, i32 0, i32 0)), !dbg !13564 ; [#uses=1 type=%"class.std::basic_ostream"*] [debug line = 21:5]
  %21 = call %"class.std::basic_ostream"* @_ZNSolsEPFRSoS_E(%"class.std::basic_ostream"* %20, %"class.std::basic_ostream"* (%"class.std::basic_ostream"*)* @_ZSt4endlIcSt11char_traitsIcEERSt13basic_ostreamIT_T0_ES6_), !dbg !13564 ; [#uses=0 type=%"class.std::basic_ostream"*] [debug line = 21:5]
  ret void, !dbg !13565                           ; [debug line = 22:1]
}

; [#uses=281]
declare void @llvm.dbg.declare(metadata, metadata) nounwind readnone

; [#uses=29]
declare %"class.std::basic_ostream"* @_ZStlsISt11char_traitsIcEERSt13basic_ostreamIcT_ES5_PKc(%"class.std::basic_ostream"*, i8*)

; [#uses=14]
declare %"class.std::basic_ostream"* @_ZNSolsEi(%"class.std::basic_ostream"*, i32)

; [#uses=22]
declare %"class.std::basic_ostream"* @_ZNSolsEPFRSoS_E(%"class.std::basic_ostream"*, %"class.std::basic_ostream"* (%"class.std::basic_ostream"*)*)

; [#uses=22]
declare %"class.std::basic_ostream"* @_ZSt4endlIcSt11char_traitsIcEERSt13basic_ostreamIT_T0_ES6_(%"class.std::basic_ostream"*)

; [#uses=1]
define i32 @_Z9parseFaceR9ColorCubeSsRi(%class.ColorCube* %faceletCube, %"class.std::basic_string"* %faceString, i32* %face) nounwind uwtable {
  %1 = alloca i32, align 4                        ; [#uses=6 type=i32*]
  %2 = alloca %class.ColorCube*, align 8          ; [#uses=2 type=%class.ColorCube**]
  %3 = alloca i32*, align 8                       ; [#uses=2 type=i32**]
  %facelet = alloca i32, align 4                  ; [#uses=6 type=i32*]
  store %class.ColorCube* %faceletCube, %class.ColorCube** %2, align 8
  call void @llvm.dbg.declare(metadata !{%class.ColorCube** %2}, metadata !13566), !dbg !13567 ; [debug line = 25:26] [debug variable = faceletCube]
  call void @llvm.dbg.declare(metadata !{%"class.std::basic_string"* %faceString}, metadata !13568), !dbg !13569 ; [debug line = 25:46] [debug variable = faceString]
  store i32* %face, i32** %3, align 8
  call void @llvm.dbg.declare(metadata !{i32** %3}, metadata !13570), !dbg !13571 ; [debug line = 25:63] [debug variable = face]
  call void @llvm.dbg.declare(metadata !{i32* %facelet}, metadata !13572), !dbg !13574 ; [debug line = 26:9] [debug variable = facelet]
  %4 = call i64 @_ZNKSs4sizeEv(%"class.std::basic_string"* %faceString), !dbg !13575 ; [#uses=1 type=i64] [debug line = 28:8]
  %5 = icmp ne i64 %4, 11, !dbg !13575            ; [#uses=1 type=i1] [debug line = 28:8]
  br i1 %5, label %6, label %7, !dbg !13575       ; [debug line = 28:8]

; <label>:6                                       ; preds = %0
  store i32 3, i32* %1, !dbg !13576               ; [debug line = 29:9]
  br label %47, !dbg !13576                       ; [debug line = 29:9]

; <label>:7                                       ; preds = %0
  %8 = load %class.ColorCube** %2, align 8, !dbg !13577 ; [#uses=1 type=%class.ColorCube*] [debug line = 32:16]
  %9 = call i8* @_ZNSsixEm(%"class.std::basic_string"* %faceString, i64 0), !dbg !13578 ; [#uses=1 type=i8*] [debug line = 32:45]
  %10 = load i8* %9, !dbg !13578                  ; [#uses=1 type=i8] [debug line = 32:45]
  %11 = call i32 @_ZN9ColorCube16faceNameToOffsetEc(%class.ColorCube* %8, i8 signext %10), !dbg !13578 ; [#uses=2 type=i32] [debug line = 32:45]
  %12 = load i32** %3, align 8, !dbg !13578       ; [#uses=1 type=i32*] [debug line = 32:45]
  store i32 %11, i32* %12, align 4, !dbg !13578   ; [debug line = 32:45]
  %13 = icmp slt i32 %11, 0, !dbg !13578          ; [#uses=1 type=i1] [debug line = 32:45]
  br i1 %13, label %14, label %15, !dbg !13578    ; [debug line = 32:45]

; <label>:14                                      ; preds = %7
  store i32 1, i32* %1, !dbg !13579               ; [debug line = 33:9]
  br label %47, !dbg !13579                       ; [debug line = 33:9]

; <label>:15                                      ; preds = %7
  %16 = call i8* @_ZNSsixEm(%"class.std::basic_string"* %faceString, i64 1), !dbg !13580 ; [#uses=1 type=i8*] [debug line = 35:8]
  %17 = load i8* %16, !dbg !13580                 ; [#uses=1 type=i8] [debug line = 35:8]
  %18 = sext i8 %17 to i32, !dbg !13580           ; [#uses=1 type=i32] [debug line = 35:8]
  %19 = icmp ne i32 %18, 58, !dbg !13580          ; [#uses=1 type=i1] [debug line = 35:8]
  br i1 %19, label %20, label %21, !dbg !13580    ; [debug line = 35:8]

; <label>:20                                      ; preds = %15
  store i32 3, i32* %1, !dbg !13581               ; [debug line = 36:9]
  br label %47, !dbg !13581                       ; [debug line = 36:9]

; <label>:21                                      ; preds = %15
  store i32 0, i32* %facelet, align 4, !dbg !13582 ; [debug line = 39:9]
  br label %22, !dbg !13582                       ; [debug line = 39:9]

; <label>:22                                      ; preds = %43, %21
  %23 = load i32* %facelet, align 4, !dbg !13582  ; [#uses=1 type=i32] [debug line = 39:9]
  %24 = icmp slt i32 %23, 9, !dbg !13582          ; [#uses=1 type=i1] [debug line = 39:9]
  br i1 %24, label %25, label %46, !dbg !13582    ; [debug line = 39:9]

; <label>:25                                      ; preds = %22
  %26 = load i32* %facelet, align 4, !dbg !13584  ; [#uses=1 type=i32] [debug line = 41:12]
  %27 = add nsw i32 2, %26, !dbg !13584           ; [#uses=1 type=i32] [debug line = 41:12]
  %28 = sext i32 %27 to i64, !dbg !13584          ; [#uses=1 type=i64] [debug line = 41:12]
  %29 = call i8* @_ZNSsixEm(%"class.std::basic_string"* %faceString, i64 %28), !dbg !13584 ; [#uses=1 type=i8*] [debug line = 41:12]
  %30 = load i8* %29, !dbg !13584                 ; [#uses=1 type=i8] [debug line = 41:12]
  %31 = sext i8 %30 to i32, !dbg !13584           ; [#uses=1 type=i32] [debug line = 41:12]
  %32 = icmp sle i32 %31, 32, !dbg !13584         ; [#uses=1 type=i1] [debug line = 41:12]
  br i1 %32, label %41, label %33, !dbg !13584    ; [debug line = 41:12]

; <label>:33                                      ; preds = %25
  %34 = load i32* %facelet, align 4, !dbg !13586  ; [#uses=1 type=i32] [debug line = 41:44]
  %35 = add nsw i32 2, %34, !dbg !13586           ; [#uses=1 type=i32] [debug line = 41:44]
  %36 = sext i32 %35 to i64, !dbg !13586          ; [#uses=1 type=i64] [debug line = 41:44]
  %37 = call i8* @_ZNSsixEm(%"class.std::basic_string"* %faceString, i64 %36), !dbg !13586 ; [#uses=1 type=i8*] [debug line = 41:44]
  %38 = load i8* %37, !dbg !13586                 ; [#uses=1 type=i8] [debug line = 41:44]
  %39 = sext i8 %38 to i32, !dbg !13586           ; [#uses=1 type=i32] [debug line = 41:44]
  %40 = icmp sgt i32 %39, 126, !dbg !13586        ; [#uses=1 type=i1] [debug line = 41:44]
  br i1 %40, label %41, label %42, !dbg !13586    ; [debug line = 41:44]

; <label>:41                                      ; preds = %33, %25
  store i32 3, i32* %1, !dbg !13587               ; [debug line = 42:13]
  br label %47, !dbg !13587                       ; [debug line = 42:13]

; <label>:42                                      ; preds = %33
  br label %43, !dbg !13588                       ; [debug line = 43:5]

; <label>:43                                      ; preds = %42
  %44 = load i32* %facelet, align 4, !dbg !13589  ; [#uses=1 type=i32] [debug line = 39:35]
  %45 = add nsw i32 %44, 1, !dbg !13589           ; [#uses=1 type=i32] [debug line = 39:35]
  store i32 %45, i32* %facelet, align 4, !dbg !13589 ; [debug line = 39:35]
  br label %22, !dbg !13589                       ; [debug line = 39:35]

; <label>:46                                      ; preds = %22
  store i32 0, i32* %1, !dbg !13590               ; [debug line = 45:5]
  br label %47, !dbg !13590                       ; [debug line = 45:5]

; <label>:47                                      ; preds = %46, %41, %20, %14, %6
  %48 = load i32* %1, !dbg !13591                 ; [#uses=1 type=i32] [debug line = 46:1]
  ret i32 %48, !dbg !13591                        ; [debug line = 46:1]
}

; [#uses=1]
declare i64 @_ZNKSs4sizeEv(%"class.std::basic_string"*)

; [#uses=5]
declare i8* @_ZNSsixEm(%"class.std::basic_string"*, i64)

; [#uses=1]
define i32 @_Z13parseFaceletsPSsR9ColorCube(%"class.std::basic_string"* %faceletStrings, %class.ColorCube* %cube) nounwind uwtable {
  %1 = alloca i32, align 4                        ; [#uses=4 type=i32*]
  %2 = alloca %"class.std::basic_string"*, align 8 ; [#uses=3 type=%"class.std::basic_string"**]
  %3 = alloca %class.ColorCube*, align 8          ; [#uses=3 type=%class.ColorCube**]
  %face = alloca i32, align 4                     ; [#uses=3 type=i32*]
  %faces = alloca [6 x i32], align 16             ; [#uses=3 type=[6 x i32]*]
  %status = alloca i32, align 4                   ; [#uses=2 type=i32*]
  %i = alloca i32, align 4                        ; [#uses=5 type=i32*]
  %i1 = alloca i32, align 4                       ; [#uses=6 type=i32*]
  %4 = alloca %"class.std::basic_string", align 8 ; [#uses=3 type=%"class.std::basic_string"*]
  %5 = alloca %"class.std::basic_string", align 8 ; [#uses=3 type=%"class.std::basic_string"*]
  %i2 = alloca i32, align 4                       ; [#uses=5 type=i32*]
  store %"class.std::basic_string"* %faceletStrings, %"class.std::basic_string"** %2, align 8
  call void @llvm.dbg.declare(metadata !{%"class.std::basic_string"** %2}, metadata !13592), !dbg !13593 ; [debug line = 48:26] [debug variable = faceletStrings]
  store %class.ColorCube* %cube, %class.ColorCube** %3, align 8
  call void @llvm.dbg.declare(metadata !{%class.ColorCube** %3}, metadata !13594), !dbg !13595 ; [debug line = 48:55] [debug variable = cube]
  call void @llvm.dbg.declare(metadata !{i32* %face}, metadata !13596), !dbg !13598 ; [debug line = 49:9] [debug variable = face]
  call void @llvm.dbg.declare(metadata !{[6 x i32]* %faces}, metadata !13599), !dbg !13603 ; [debug line = 50:9] [debug variable = faces]
  call void @llvm.dbg.declare(metadata !{i32* %status}, metadata !13604), !dbg !13605 ; [debug line = 51:9] [debug variable = status]
  call void @llvm.dbg.declare(metadata !{i32* %i}, metadata !13606), !dbg !13608 ; [debug line = 53:13] [debug variable = i]
  store i32 0, i32* %i, align 4, !dbg !13609      ; [debug line = 53:18]
  br label %6, !dbg !13609                        ; [debug line = 53:18]

; <label>:6                                       ; preds = %13, %0
  %7 = load i32* %i, align 4, !dbg !13609         ; [#uses=1 type=i32] [debug line = 53:18]
  %8 = icmp slt i32 %7, 6, !dbg !13609            ; [#uses=1 type=i1] [debug line = 53:18]
  br i1 %8, label %9, label %16, !dbg !13609      ; [debug line = 53:18]

; <label>:9                                       ; preds = %6
  %10 = load i32* %i, align 4, !dbg !13610        ; [#uses=1 type=i32] [debug line = 54:9]
  %11 = sext i32 %10 to i64, !dbg !13610          ; [#uses=1 type=i64] [debug line = 54:9]
  %12 = getelementptr inbounds [6 x i32]* %faces, i32 0, i64 %11, !dbg !13610 ; [#uses=1 type=i32*] [debug line = 54:9]
  store i32 0, i32* %12, align 4, !dbg !13610     ; [debug line = 54:9]
  br label %13, !dbg !13610                       ; [debug line = 54:9]

; <label>:13                                      ; preds = %9
  %14 = load i32* %i, align 4, !dbg !13611        ; [#uses=1 type=i32] [debug line = 53:27]
  %15 = add nsw i32 %14, 1, !dbg !13611           ; [#uses=1 type=i32] [debug line = 53:27]
  store i32 %15, i32* %i, align 4, !dbg !13611    ; [debug line = 53:27]
  br label %6, !dbg !13611                        ; [debug line = 53:27]

; <label>:16                                      ; preds = %6
  call void @llvm.dbg.declare(metadata !{i32* %i1}, metadata !13612), !dbg !13614 ; [debug line = 56:13] [debug variable = i]
  store i32 0, i32* %i1, align 4, !dbg !13615     ; [debug line = 56:18]
  br label %17, !dbg !13615                       ; [debug line = 56:18]

; <label>:17                                      ; preds = %42, %16
  %18 = load i32* %i1, align 4, !dbg !13615       ; [#uses=1 type=i32] [debug line = 56:18]
  %19 = icmp slt i32 %18, 6, !dbg !13615          ; [#uses=1 type=i1] [debug line = 56:18]
  br i1 %19, label %20, label %45, !dbg !13615    ; [debug line = 56:18]

; <label>:20                                      ; preds = %17
  %21 = load %class.ColorCube** %3, align 8, !dbg !13616 ; [#uses=1 type=%class.ColorCube*] [debug line = 58:22]
  %22 = load i32* %i1, align 4, !dbg !13616       ; [#uses=1 type=i32] [debug line = 58:22]
  %23 = sext i32 %22 to i64, !dbg !13616          ; [#uses=1 type=i64] [debug line = 58:22]
  %24 = load %"class.std::basic_string"** %2, align 8, !dbg !13616 ; [#uses=1 type=%"class.std::basic_string"*] [debug line = 58:22]
  %25 = getelementptr inbounds %"class.std::basic_string"* %24, i64 %23, !dbg !13616 ; [#uses=1 type=%"class.std::basic_string"*] [debug line = 58:22]
  call void @_ZNSsC1ERKSs(%"class.std::basic_string"* %4, %"class.std::basic_string"* %25), !dbg !13616 ; [debug line = 58:22]
  %26 = call i32 @_Z9parseFaceR9ColorCubeSsRi(%class.ColorCube* %21, %"class.std::basic_string"* %4, i32* %face), !dbg !13616 ; [#uses=2 type=i32] [debug line = 58:22]
  store i32 %26, i32* %status, align 4, !dbg !13616 ; [debug line = 58:22]
  %27 = icmp ne i32 %26, 0, !dbg !13616           ; [#uses=1 type=i1] [debug line = 58:22]
  call void @_ZNSsD1Ev(%"class.std::basic_string"* %4), !dbg !13616 ; [debug line = 58:22]
  br i1 %27, label %28, label %30, !dbg !13616    ; [debug line = 58:22]

; <label>:28                                      ; preds = %20
  %29 = load i32* %status, align 4, !dbg !13618   ; [#uses=1 type=i32] [debug line = 59:13]
  store i32 %29, i32* %1, !dbg !13618             ; [debug line = 59:13]
  br label %61, !dbg !13618                       ; [debug line = 59:13]

; <label>:30                                      ; preds = %20
  %31 = load %class.ColorCube** %3, align 8, !dbg !13619 ; [#uses=1 type=%class.ColorCube*] [debug line = 60:9]
  %32 = load i32* %face, align 4, !dbg !13619     ; [#uses=1 type=i32] [debug line = 60:9]
  %33 = load i32* %i1, align 4, !dbg !13620       ; [#uses=1 type=i32] [debug line = 60:36]
  %34 = sext i32 %33 to i64, !dbg !13620          ; [#uses=1 type=i64] [debug line = 60:36]
  %35 = load %"class.std::basic_string"** %2, align 8, !dbg !13620 ; [#uses=1 type=%"class.std::basic_string"*] [debug line = 60:36]
  %36 = getelementptr inbounds %"class.std::basic_string"* %35, i64 %34, !dbg !13620 ; [#uses=1 type=%"class.std::basic_string"*] [debug line = 60:36]
  call void @_ZNKSs6substrEmm(%"class.std::basic_string"* sret %5, %"class.std::basic_string"* %36, i64 2, i64 -1), !dbg !13620 ; [debug line = 60:36]
  call void @_ZN9ColorCube15setFaceMarkingsEiSs(%class.ColorCube* %31, i32 %32, %"class.std::basic_string"* %5), !dbg !13620 ; [debug line = 60:36]
  call void @_ZNSsD1Ev(%"class.std::basic_string"* %5), !dbg !13620 ; [debug line = 60:36]
  %37 = load i32* %face, align 4, !dbg !13621     ; [#uses=1 type=i32] [debug line = 61:9]
  %38 = sext i32 %37 to i64, !dbg !13621          ; [#uses=1 type=i64] [debug line = 61:9]
  %39 = getelementptr inbounds [6 x i32]* %faces, i32 0, i64 %38, !dbg !13621 ; [#uses=2 type=i32*] [debug line = 61:9]
  %40 = load i32* %39, align 4, !dbg !13621       ; [#uses=1 type=i32] [debug line = 61:9]
  %41 = add nsw i32 %40, 1, !dbg !13621           ; [#uses=1 type=i32] [debug line = 61:9]
  store i32 %41, i32* %39, align 4, !dbg !13621   ; [debug line = 61:9]
  br label %42, !dbg !13622                       ; [debug line = 62:5]

; <label>:42                                      ; preds = %30
  %43 = load i32* %i1, align 4, !dbg !13623       ; [#uses=1 type=i32] [debug line = 56:27]
  %44 = add nsw i32 %43, 1, !dbg !13623           ; [#uses=1 type=i32] [debug line = 56:27]
  store i32 %44, i32* %i1, align 4, !dbg !13623   ; [debug line = 56:27]
  br label %17, !dbg !13623                       ; [debug line = 56:27]

; <label>:45                                      ; preds = %17
  call void @llvm.dbg.declare(metadata !{i32* %i2}, metadata !13624), !dbg !13626 ; [debug line = 65:13] [debug variable = i]
  store i32 0, i32* %i2, align 4, !dbg !13627     ; [debug line = 65:18]
  br label %46, !dbg !13627                       ; [debug line = 65:18]

; <label>:46                                      ; preds = %57, %45
  %47 = load i32* %i2, align 4, !dbg !13627       ; [#uses=1 type=i32] [debug line = 65:18]
  %48 = icmp slt i32 %47, 6, !dbg !13627          ; [#uses=1 type=i1] [debug line = 65:18]
  br i1 %48, label %49, label %60, !dbg !13627    ; [debug line = 65:18]

; <label>:49                                      ; preds = %46
  %50 = load i32* %i2, align 4, !dbg !13628       ; [#uses=1 type=i32] [debug line = 66:9]
  %51 = sext i32 %50 to i64, !dbg !13628          ; [#uses=1 type=i64] [debug line = 66:9]
  %52 = getelementptr inbounds [6 x i32]* %faces, i32 0, i64 %51, !dbg !13628 ; [#uses=1 type=i32*] [debug line = 66:9]
  %53 = load i32* %52, align 4, !dbg !13628       ; [#uses=1 type=i32] [debug line = 66:9]
  %54 = icmp ne i32 %53, 1, !dbg !13628           ; [#uses=1 type=i1] [debug line = 66:9]
  br i1 %54, label %55, label %56, !dbg !13628    ; [debug line = 66:9]

; <label>:55                                      ; preds = %49
  store i32 2, i32* %1, !dbg !13630               ; [debug line = 67:13]
  br label %61, !dbg !13630                       ; [debug line = 67:13]

; <label>:56                                      ; preds = %49
  br label %57, !dbg !13631                       ; [debug line = 68:5]

; <label>:57                                      ; preds = %56
  %58 = load i32* %i2, align 4, !dbg !13632       ; [#uses=1 type=i32] [debug line = 65:27]
  %59 = add nsw i32 %58, 1, !dbg !13632           ; [#uses=1 type=i32] [debug line = 65:27]
  store i32 %59, i32* %i2, align 4, !dbg !13632   ; [debug line = 65:27]
  br label %46, !dbg !13632                       ; [debug line = 65:27]

; <label>:60                                      ; preds = %46
  store i32 0, i32* %1, !dbg !13633               ; [debug line = 69:5]
  br label %61, !dbg !13633                       ; [debug line = 69:5]

; <label>:61                                      ; preds = %60, %55, %28
  %62 = load i32* %1, !dbg !13634                 ; [#uses=1 type=i32] [debug line = 70:1]
  ret i32 %62, !dbg !13634                        ; [debug line = 70:1]
}

; [#uses=2]
declare void @_ZNSsC1ERKSs(%"class.std::basic_string"*, %"class.std::basic_string"*)

; [#uses=7]
declare void @_ZNSsD1Ev(%"class.std::basic_string"*)

; [#uses=1]
declare void @_ZNKSs6substrEmm(%"class.std::basic_string"* sret, %"class.std::basic_string"*, i64, i64)

; [#uses=1]
define internal void @_GLOBAL__I_a() nounwind section ".text.startup" {
  call void @__cxx_global_var_init()
  ret void
}

; [#uses=1]
define internal void @__cxx_global_var_init3() nounwind section ".text.startup" {
  call void @_ZNSt8ios_base4InitC1Ev(%"class.std::ios_base::Init"* @_ZStL8__ioinit1)
  %1 = call i32 @atexit(void ()* @__dtor__ZStL8__ioinit4) ; [#uses=0 type=i32]
  ret void
}

; [#uses=1]
define internal void @__dtor__ZStL8__ioinit4() nounwind section ".text.startup" {
  call void @_ZNSt8ios_base4InitD1Ev(%"class.std::ios_base::Init"* @_ZStL8__ioinit1)
  ret void
}

; [#uses=0]
define void @_Z9solveCubePPKcPi(i8** %faceletStrings, i32* %solution) nounwind uwtable {
  %1 = alloca i8**, align 8                       ; [#uses=3 type=i8***]
  %2 = alloca i32*, align 8                       ; [#uses=5 type=i32**]
  %status = alloca i32, align 4                   ; [#uses=2 type=i32*]
  %faceletCube = alloca %class.ColorCube, align 4 ; [#uses=4 type=%class.ColorCube*]
  %arrNew = alloca [6 x %"class.std::basic_string"], align 16 ; [#uses=5 type=[6 x %"class.std::basic_string"]*]
  %i = alloca i32, align 4                        ; [#uses=6 type=i32*]
  %a = alloca %"class.std::basic_string", align 8 ; [#uses=3 type=%"class.std::basic_string"*]
  %3 = alloca %"class.std::allocator", align 1    ; [#uses=3 type=%"class.std::allocator"*]
  %4 = alloca i32                                 ; [#uses=4 type=i32*]
  %cube = alloca %class.RubikCube, align 8        ; [#uses=4 type=%class.RubikCube*]
  %solver = alloca %class.RubikSolver, align 8    ; [#uses=5 type=%class.RubikSolver*]
  %size = alloca i32, align 4                     ; [#uses=2 type=i32*]
  store i8** %faceletStrings, i8*** %1, align 8
  call void @llvm.dbg.declare(metadata !{i8*** %1}, metadata !13635), !dbg !13636 ; [debug line = 11:29] [debug variable = faceletStrings]
  store i32* %solution, i32** %2, align 8
  call void @llvm.dbg.declare(metadata !{i32** %2}, metadata !13637), !dbg !13638 ; [debug line = 11:53] [debug variable = solution]
  %5 = load i8*** %1, align 8, !dbg !13639        ; [#uses=1 type=i8**] [debug line = 12:2]
  call void (...)* @_ssdm_SpecArrayDimSize(i8** %5, i32 6) nounwind, !dbg !13639 ; [debug line = 12:2]
  call void @llvm.dbg.declare(metadata !{i32* %status}, metadata !13641), !dbg !13642 ; [debug line = 13:9] [debug variable = status]
  call void @llvm.dbg.declare(metadata !{%class.ColorCube* %faceletCube}, metadata !13643), !dbg !13644 ; [debug line = 14:15] [debug variable = faceletCube]
  call void @_ZN9ColorCubeC1Ev(%class.ColorCube* %faceletCube), !dbg !13645 ; [debug line = 14:26]
  call void @llvm.dbg.declare(metadata !{[6 x %"class.std::basic_string"]* %arrNew}, metadata !13646), !dbg !13648 ; [debug line = 18:12] [debug variable = arrNew]
  %6 = getelementptr inbounds [6 x %"class.std::basic_string"]* %arrNew, i32 0, i32 0, !dbg !13649 ; [#uses=0 type=%"class.std::basic_string"*] [debug line = 18:22]
  br label %arrayctor.loop

arrayctor.loop:                                   ; preds = %arrayctor.loop, %0
  %7 = phi i32 [ 0, %0 ], [ %8, %arrayctor.loop ], !dbg !13649 ; [#uses=3 type=i32] [debug line = 18:22]
  %8 = add i32 %7, 1, !dbg !13649                 ; [#uses=1 type=i32] [debug line = 18:22]
  %9 = getelementptr inbounds [6 x %"class.std::basic_string"]* %arrNew, i32 0, i32 %7, !dbg !13649 ; [#uses=1 type=%"class.std::basic_string"*] [debug line = 18:22]
  call void @_ZNSsC1Ev(%"class.std::basic_string"* %9), !dbg !13649 ; [debug line = 18:22]
  %10 = icmp eq i32 %7, 5, !dbg !13649            ; [#uses=1 type=i1] [debug line = 18:22]
  br i1 %10, label %11, label %arrayctor.loop, !dbg !13649 ; [debug line = 18:22]

; <label>:11                                      ; preds = %arrayctor.loop
  br label %12, !dbg !13649                       ; [debug line = 18:22]

; <label>:12                                      ; preds = %11
  call void @llvm.dbg.declare(metadata !{i32* %i}, metadata !13650), !dbg !13651 ; [debug line = 19:9] [debug variable = i]
  store i32 0, i32* %i, align 4, !dbg !13652      ; [debug line = 19:12]
  br label %13, !dbg !13653                       ; [debug line = 20:5]

; <label>:13                                      ; preds = %26, %12
  %14 = load i32* %i, align 4, !dbg !13653        ; [#uses=1 type=i32] [debug line = 20:5]
  %15 = icmp slt i32 %14, 6, !dbg !13653          ; [#uses=1 type=i1] [debug line = 20:5]
  br i1 %15, label %16, label %29, !dbg !13653    ; [debug line = 20:5]

; <label>:16                                      ; preds = %13
  call void @llvm.dbg.declare(metadata !{%"class.std::basic_string"* %a}, metadata !13655), !dbg !13657 ; [debug line = 22:21] [debug variable = a]
  %17 = load i32* %i, align 4, !dbg !13658        ; [#uses=1 type=i32] [debug line = 22:41]
  %18 = sext i32 %17 to i64, !dbg !13658          ; [#uses=1 type=i64] [debug line = 22:41]
  %19 = load i8*** %1, align 8, !dbg !13658       ; [#uses=1 type=i8**] [debug line = 22:41]
  %20 = getelementptr inbounds i8** %19, i64 %18, !dbg !13658 ; [#uses=1 type=i8**] [debug line = 22:41]
  %21 = load i8** %20, align 8, !dbg !13658       ; [#uses=1 type=i8*] [debug line = 22:41]
  call void @_ZNSaIcEC1Ev(%"class.std::allocator"* %3) nounwind, !dbg !13658 ; [debug line = 22:41]
  call void @_ZNSsC1EPKcRKSaIcE(%"class.std::basic_string"* %a, i8* %21, %"class.std::allocator"* %3), !dbg !13658 ; [debug line = 22:41]
  call void @_ZNSaIcED1Ev(%"class.std::allocator"* %3) nounwind, !dbg !13658 ; [debug line = 22:41]
  %22 = load i32* %i, align 4, !dbg !13659        ; [#uses=1 type=i32] [debug line = 23:9]
  %23 = sext i32 %22 to i64, !dbg !13659          ; [#uses=1 type=i64] [debug line = 23:9]
  %24 = getelementptr inbounds [6 x %"class.std::basic_string"]* %arrNew, i32 0, i64 %23, !dbg !13659 ; [#uses=1 type=%"class.std::basic_string"*] [debug line = 23:9]
  %25 = call %"class.std::basic_string"* @_ZNSsaSERKSs(%"class.std::basic_string"* %24, %"class.std::basic_string"* %a), !dbg !13659 ; [#uses=0 type=%"class.std::basic_string"*] [debug line = 23:9]
  call void @_ZNSsD1Ev(%"class.std::basic_string"* %a), !dbg !13660 ; [debug line = 24:5]
  br label %26, !dbg !13660                       ; [debug line = 24:5]

; <label>:26                                      ; preds = %16
  %27 = load i32* %i, align 4, !dbg !13661        ; [#uses=1 type=i32] [debug line = 20:15]
  %28 = add nsw i32 %27, 1, !dbg !13661           ; [#uses=1 type=i32] [debug line = 20:15]
  store i32 %28, i32* %i, align 4, !dbg !13661    ; [debug line = 20:15]
  br label %13, !dbg !13661                       ; [debug line = 20:15]

; <label>:29                                      ; preds = %13
  %30 = getelementptr inbounds [6 x %"class.std::basic_string"]* %arrNew, i32 0, i32 0, !dbg !13662 ; [#uses=1 type=%"class.std::basic_string"*] [debug line = 27:18]
  %31 = call i32 @_Z13parseFaceletsPSsR9ColorCube(%"class.std::basic_string"* %30, %class.ColorCube* %faceletCube), !dbg !13662 ; [#uses=2 type=i32] [debug line = 27:18]
  store i32 %31, i32* %status, align 4, !dbg !13662 ; [debug line = 27:18]
  %32 = icmp ne i32 %31, 0, !dbg !13662           ; [#uses=1 type=i1] [debug line = 27:18]
  br i1 %32, label %33, label %36, !dbg !13662    ; [debug line = 27:18]

; <label>:33                                      ; preds = %29
  %34 = load i32** %2, align 8, !dbg !13663       ; [#uses=1 type=i32*] [debug line = 28:9]
  %35 = getelementptr inbounds i32* %34, i64 0, !dbg !13663 ; [#uses=1 type=i32*] [debug line = 28:9]
  store i32 -2, i32* %35, align 4, !dbg !13663    ; [debug line = 28:9]
  store i32 1, i32* %4
  br label %52, !dbg !13665                       ; [debug line = 29:9]

; <label>:36                                      ; preds = %29
  call void @llvm.dbg.declare(metadata !{%class.RubikCube* %cube}, metadata !13666), !dbg !13693 ; [debug line = 32:15] [debug variable = cube]
  call void @_ZN9RubikCubeC1Ev(%class.RubikCube* %cube), !dbg !13694 ; [debug line = 32:19]
  %37 = bitcast %class.RubikCube* %cube to %class.Cube*, !dbg !13695 ; [#uses=1 type=%class.Cube*] [debug line = 33:18]
  %38 = call i32 bitcast (i32 (%class.ColorCube*, %class.Cube.96*)* @_ZN9ColorCube15checkAndConvertER4Cube to i32 (%class.ColorCube*, %class.Cube*)*)(%class.ColorCube* %faceletCube, %class.Cube* %37), !dbg !13695 ; [#uses=2 type=i32] [debug line = 33:18]
  store i32 %38, i32* %status, align 4, !dbg !13695 ; [debug line = 33:18]
  %39 = icmp ne i32 %38, 0, !dbg !13695           ; [#uses=1 type=i1] [debug line = 33:18]
  br i1 %39, label %40, label %43, !dbg !13695    ; [debug line = 33:18]

; <label>:40                                      ; preds = %36
  %41 = load i32** %2, align 8, !dbg !13696       ; [#uses=1 type=i32*] [debug line = 34:9]
  %42 = getelementptr inbounds i32* %41, i64 0, !dbg !13696 ; [#uses=1 type=i32*] [debug line = 34:9]
  store i32 -3, i32* %42, align 4, !dbg !13696    ; [debug line = 34:9]
  store i32 1, i32* %4
  br label %51, !dbg !13698                       ; [debug line = 35:9]

; <label>:43                                      ; preds = %36
  call void @llvm.dbg.declare(metadata !{%class.RubikSolver* %solver}, metadata !13699), !dbg !14037 ; [debug line = 38:17] [debug variable = solver]
  call void @_ZN11RubikSolverC1Ev(%class.RubikSolver* %solver), !dbg !14038 ; [debug line = 38:23]
  call void @_ZN11RubikSolver10initTablesEv(%class.RubikSolver* %solver), !dbg !14039 ; [debug line = 39:5]
  %44 = call i32 @_ZN11RubikSolver5solveER9RubikCube(%class.RubikSolver* %solver, %class.RubikCube* %cube), !dbg !14040 ; [#uses=0 type=i32] [debug line = 40:5]
  call void @llvm.dbg.declare(metadata !{i32* %size}, metadata !14041), !dbg !14042 ; [debug line = 42:9] [debug variable = size]
  %45 = load i32** %2, align 8, !dbg !14043       ; [#uses=1 type=i32*] [debug line = 42:16]
  %46 = call i32 @_ZN11RubikSolver11getSolutionEPi(%class.RubikSolver* %solver, i32* %45), !dbg !14043 ; [#uses=1 type=i32] [debug line = 42:16]
  store i32 %46, i32* %size, align 4, !dbg !14043 ; [debug line = 42:16]
  %47 = load i32* %size, align 4, !dbg !14044     ; [#uses=1 type=i32] [debug line = 43:5]
  %48 = sext i32 %47 to i64, !dbg !14044          ; [#uses=1 type=i64] [debug line = 43:5]
  %49 = load i32** %2, align 8, !dbg !14044       ; [#uses=1 type=i32*] [debug line = 43:5]
  %50 = getelementptr inbounds i32* %49, i64 %48, !dbg !14044 ; [#uses=1 type=i32*] [debug line = 43:5]
  store i32 -1, i32* %50, align 4, !dbg !14044    ; [debug line = 43:5]
  call void @_ZN11RubikSolverD1Ev(%class.RubikSolver* %solver), !dbg !14045 ; [debug line = 44:1]
  store i32 0, i32* %4, !dbg !14045               ; [debug line = 44:1]
  br label %51, !dbg !14045                       ; [debug line = 44:1]

; <label>:51                                      ; preds = %43, %40
  call void @_ZN9RubikCubeD1Ev(%class.RubikCube* %cube), !dbg !14045 ; [debug line = 44:1]
  br label %52

; <label>:52                                      ; preds = %51, %33
  %53 = getelementptr inbounds [6 x %"class.std::basic_string"]* %arrNew, i32 0, i32 0, !dbg !14045 ; [#uses=2 type=%"class.std::basic_string"*] [debug line = 44:1]
  %54 = getelementptr inbounds %"class.std::basic_string"* %53, i64 6, !dbg !14045 ; [#uses=1 type=%"class.std::basic_string"*] [debug line = 44:1]
  br label %55, !dbg !14045                       ; [debug line = 44:1]

; <label>:55                                      ; preds = %55, %52
  %56 = phi %"class.std::basic_string"* [ %54, %52 ], [ %57, %55 ], !dbg !14045 ; [#uses=1 type=%"class.std::basic_string"*] [debug line = 44:1]
  %57 = getelementptr inbounds %"class.std::basic_string"* %56, i64 -1, !dbg !14045 ; [#uses=3 type=%"class.std::basic_string"*] [debug line = 44:1]
  call void @_ZNSsD1Ev(%"class.std::basic_string"* %57), !dbg !14045 ; [debug line = 44:1]
  %58 = icmp eq %"class.std::basic_string"* %57, %53, !dbg !14045 ; [#uses=1 type=i1] [debug line = 44:1]
  br i1 %58, label %59, label %55, !dbg !14045    ; [debug line = 44:1]

; <label>:59                                      ; preds = %55
  call void @_ZN9ColorCubeD1Ev(%class.ColorCube* %faceletCube), !dbg !14045 ; [debug line = 44:1]
  %cleanup.dest = load i32* %4                    ; [#uses=1 type=i32]
  switch i32 %cleanup.dest, label %61 [
    i32 0, label %60
    i32 1, label %60
  ]

; <label>:60                                      ; preds = %59, %59
  ret void, !dbg !14045                           ; [debug line = 44:1]

; <label>:61                                      ; preds = %59
  unreachable
}

; [#uses=2]
declare void @_ssdm_SpecArrayDimSize(...) nounwind

; [#uses=1]
declare void @_ZNSsC1Ev(%"class.std::basic_string"*)

; [#uses=19]
declare void @_ZNSsC1EPKcRKSaIcE(%"class.std::basic_string"*, i8*, %"class.std::allocator"*)

; [#uses=19]
declare void @_ZNSaIcEC1Ev(%"class.std::allocator"*) nounwind

; [#uses=19]
declare void @_ZNSaIcED1Ev(%"class.std::allocator"*) nounwind

; [#uses=1]
declare %"class.std::basic_string"* @_ZNSsaSERKSs(%"class.std::basic_string"*, %"class.std::basic_string"*)

; [#uses=0]
define void @_Z11printResultPi(i32* %result) nounwind uwtable {
  %1 = alloca i32*, align 8                       ; [#uses=3 type=i32**]
  %i = alloca i32, align 4                        ; [#uses=5 type=i32*]
  store i32* %result, i32** %1, align 8
  call void @llvm.dbg.declare(metadata !{i32** %1}, metadata !14046), !dbg !14047 ; [debug line = 46:25] [debug variable = result]
  call void @llvm.dbg.declare(metadata !{i32* %i}, metadata !14048), !dbg !14050 ; [debug line = 48:9] [debug variable = i]
  store i32 0, i32* %i, align 4, !dbg !14051      ; [debug line = 48:12]
  br label %2, !dbg !14052                        ; [debug line = 49:5]

; <label>:2                                       ; preds = %9, %0
  %3 = load i32* %i, align 4, !dbg !14052         ; [#uses=1 type=i32] [debug line = 49:5]
  %4 = sext i32 %3 to i64, !dbg !14052            ; [#uses=1 type=i64] [debug line = 49:5]
  %5 = load i32** %1, align 8, !dbg !14052        ; [#uses=1 type=i32*] [debug line = 49:5]
  %6 = getelementptr inbounds i32* %5, i64 %4, !dbg !14052 ; [#uses=1 type=i32*] [debug line = 49:5]
  %7 = load i32* %6, align 4, !dbg !14052         ; [#uses=1 type=i32] [debug line = 49:5]
  %8 = icmp sge i32 %7, 0, !dbg !14052            ; [#uses=1 type=i1] [debug line = 49:5]
  br i1 %8, label %9, label %18, !dbg !14052      ; [debug line = 49:5]

; <label>:9                                       ; preds = %2
  %10 = load i32* %i, align 4, !dbg !14053        ; [#uses=1 type=i32] [debug line = 51:9]
  %11 = sext i32 %10 to i64, !dbg !14053          ; [#uses=1 type=i64] [debug line = 51:9]
  %12 = load i32** %1, align 8, !dbg !14053       ; [#uses=1 type=i32*] [debug line = 51:9]
  %13 = getelementptr inbounds i32* %12, i64 %11, !dbg !14053 ; [#uses=1 type=i32*] [debug line = 51:9]
  %14 = load i32* %13, align 4, !dbg !14053       ; [#uses=1 type=i32] [debug line = 51:9]
  %15 = call %"class.std::basic_ostream"* @_ZNSolsEi(%"class.std::basic_ostream"* @_ZSt4cout, i32 %14), !dbg !14053 ; [#uses=0 type=%"class.std::basic_ostream"*] [debug line = 51:9]
  %16 = load i32* %i, align 4, !dbg !14055        ; [#uses=1 type=i32] [debug line = 52:9]
  %17 = add nsw i32 %16, 1, !dbg !14055           ; [#uses=1 type=i32] [debug line = 52:9]
  store i32 %17, i32* %i, align 4, !dbg !14055    ; [debug line = 52:9]
  br label %2, !dbg !14056                        ; [debug line = 53:5]

; <label>:18                                      ; preds = %2
  %19 = call %"class.std::basic_ostream"* @_ZNSolsEPFRSoS_E(%"class.std::basic_ostream"* @_ZSt4cout, %"class.std::basic_ostream"* (%"class.std::basic_ostream"*)* @_ZSt4endlIcSt11char_traitsIcEERSt13basic_ostreamIT_T0_ES6_), !dbg !14057 ; [#uses=0 type=%"class.std::basic_ostream"*] [debug line = 54:5]
  ret void, !dbg !14058                           ; [debug line = 55:1]
}

; [#uses=1]
define internal void @_GLOBAL__I_a5() nounwind section ".text.startup" {
  call void @__cxx_global_var_init3()
  ret void
}

; [#uses=1]
define internal void @__cxx_global_var_init10() nounwind section ".text.startup" {
  call void @_ZNSt8ios_base4InitC1Ev(%"class.std::ios_base::Init"* @_ZStL8__ioinit6)
  %1 = call i32 @atexit(void ()* @__dtor__ZStL8__ioinit11) ; [#uses=0 type=i32]
  ret void
}

; [#uses=1]
define internal void @__dtor__ZStL8__ioinit11() nounwind section ".text.startup" {
  call void @_ZNSt8ios_base4InitD1Ev(%"class.std::ios_base::Init"* @_ZStL8__ioinit6)
  ret void
}

; [#uses=1]
define void @_ZN5TableC2Eii(%class.Table* %this, i32 %size1, i32 %size2) unnamed_addr nounwind uwtable align 2 {
  %1 = alloca %class.Table*, align 8              ; [#uses=2 type=%class.Table**]
  %2 = alloca i32, align 4                        ; [#uses=2 type=i32*]
  %3 = alloca i32, align 4                        ; [#uses=2 type=i32*]
  store %class.Table* %this, %class.Table** %1, align 8
  call void @llvm.dbg.declare(metadata !{%class.Table** %1}, metadata !14059), !dbg !14061 ; [debug line = 13:8] [debug variable = this]
  store i32 %size1, i32* %2, align 4
  call void @llvm.dbg.declare(metadata !{i32* %2}, metadata !14062), !dbg !14063 ; [debug line = 13:18] [debug variable = size1]
  store i32 %size2, i32* %3, align 4
  call void @llvm.dbg.declare(metadata !{i32* %3}, metadata !14064), !dbg !14065 ; [debug line = 13:29] [debug variable = size2]
  %4 = load %class.Table** %1                     ; [#uses=5 type=%class.Table*]
  %5 = load i32* %2, align 4, !dbg !14066         ; [#uses=1 type=i32] [debug line = 15:5]
  %6 = load i32* %3, align 4, !dbg !14066         ; [#uses=1 type=i32] [debug line = 15:5]
  %7 = mul nsw i32 %5, %6, !dbg !14066            ; [#uses=1 type=i32] [debug line = 15:5]
  %8 = getelementptr inbounds %class.Table* %4, i32 0, i32 0, !dbg !14066 ; [#uses=1 type=i32*] [debug line = 15:5]
  store i32 %7, i32* %8, align 4, !dbg !14066     ; [debug line = 15:5]
  %9 = getelementptr inbounds %class.Table* %4, i32 0, i32 0, !dbg !14068 ; [#uses=1 type=i32*] [debug line = 17:5]
  %10 = load i32* %9, align 4, !dbg !14068        ; [#uses=1 type=i32] [debug line = 17:5]
  %11 = add nsw i32 %10, 7, !dbg !14068           ; [#uses=1 type=i32] [debug line = 17:5]
  %12 = sdiv i32 %11, 8, !dbg !14068              ; [#uses=1 type=i32] [debug line = 17:5]
  %13 = mul nsw i32 %12, 4, !dbg !14068           ; [#uses=1 type=i32] [debug line = 17:5]
  %14 = getelementptr inbounds %class.Table* %4, i32 0, i32 1, !dbg !14068 ; [#uses=1 type=i32*] [debug line = 17:5]
  store i32 %13, i32* %14, align 4, !dbg !14068   ; [debug line = 17:5]
  %15 = getelementptr inbounds %class.Table* %4, i32 0, i32 1, !dbg !14069 ; [#uses=1 type=i32*] [debug line = 18:5]
  %16 = load i32* %15, align 4, !dbg !14069       ; [#uses=1 type=i32] [debug line = 18:5]
  %17 = sext i32 %16 to i64, !dbg !14069          ; [#uses=2 type=i64] [debug line = 18:5]
  %18 = icmp slt i64 %17, 0, !dbg !14069          ; [#uses=1 type=i1] [debug line = 18:5]
  %19 = select i1 %18, i64 -1, i64 %17, !dbg !14069 ; [#uses=1 type=i64] [debug line = 18:5]
  %20 = call noalias i8* @_Znam(i64 %19), !dbg !14069 ; [#uses=1 type=i8*] [debug line = 18:5]
  %21 = getelementptr inbounds %class.Table* %4, i32 0, i32 2, !dbg !14069 ; [#uses=1 type=i8**] [debug line = 18:5]
  store i8* %20, i8** %21, align 8, !dbg !14069   ; [debug line = 18:5]
  ret void, !dbg !14070                           ; [debug line = 19:1]
}

; [#uses=1]
declare noalias i8* @_Znam(i64)

; [#uses=5]
define void @_ZN5Table4initEPKc(%class.Table* %this, i8* %fileName) nounwind uwtable align 2 {
  %1 = alloca %class.Table*, align 8              ; [#uses=2 type=%class.Table**]
  %2 = alloca i8*, align 8                        ; [#uses=2 type=i8**]
  %infile = alloca %"class.std::basic_ifstream", align 8 ; [#uses=3 type=%"class.std::basic_ifstream"*]
  store %class.Table* %this, %class.Table** %1, align 8
  call void @llvm.dbg.declare(metadata !{%class.Table** %1}, metadata !14071), !dbg !14072 ; [debug line = 21:13] [debug variable = this]
  store i8* %fileName, i8** %2, align 8
  call void @llvm.dbg.declare(metadata !{i8** %2}, metadata !14073), !dbg !14074 ; [debug line = 21:30] [debug variable = fileName]
  %3 = load %class.Table** %1                     ; [#uses=1 type=%class.Table*]
  call void @llvm.dbg.declare(metadata !{%"class.std::basic_ifstream"* %infile}, metadata !14075), !dbg !14077 ; [debug line = 22:14] [debug variable = infile]
  %4 = load i8** %2, align 8, !dbg !14078         ; [#uses=1 type=i8*] [debug line = 22:51]
  %5 = call zeroext i17 @_ZStorSt13_Ios_OpenmodeS_(i17 zeroext 8, i17 zeroext 4), !dbg !14079 ; [#uses=1 type=i17] [debug line = 22:31]
  call void @_ZNSt14basic_ifstreamIcSt11char_traitsIcEEC1EPKcSt13_Ios_Openmode(%"class.std::basic_ifstream"* %infile, i8* %4, i17 zeroext %5), !dbg !14079 ; [debug line = 22:31]
  %6 = call %"class.std::basic_ostream"* @_ZStlsISt11char_traitsIcEERSt13basic_ostreamIcT_ES5_PKc(%"class.std::basic_ostream"* @_ZSt4cout, i8* getelementptr inbounds ([8 x i8]* @.str7, i32 0, i32 0)), !dbg !14080 ; [#uses=1 type=%"class.std::basic_ostream"*] [debug line = 23:5]
  %7 = call %"class.std::basic_ostream"* @_ZNSolsEPFRSoS_E(%"class.std::basic_ostream"* %6, %"class.std::basic_ostream"* (%"class.std::basic_ostream"*)* @_ZSt4endlIcSt11char_traitsIcEERSt13basic_ostreamIT_T0_ES6_), !dbg !14080 ; [#uses=0 type=%"class.std::basic_ostream"*] [debug line = 23:5]
  call void @_ZN5Table4loadERSt14basic_ifstreamIcSt11char_traitsIcEE(%class.Table* %3, %"class.std::basic_ifstream"* %infile), !dbg !14081 ; [debug line = 24:5]
  call void @_ZNSt14basic_ifstreamIcSt11char_traitsIcEED1Ev(%"class.std::basic_ifstream"* %infile), !dbg !14082 ; [debug line = 25:1]
  ret void, !dbg !14082                           ; [debug line = 25:1]
}

; [#uses=1]
declare void @_ZNSt14basic_ifstreamIcSt11char_traitsIcEEC1EPKcSt13_Ios_Openmode(%"class.std::basic_ifstream"*, i8*, i17 zeroext)

; [#uses=1]
define linkonce_odr zeroext i17 @_ZStorSt13_Ios_OpenmodeS_(i17 zeroext %__a, i17 zeroext %__b) nounwind uwtable inlinehint {
  %1 = alloca i17, align 4                        ; [#uses=2 type=i17*]
  %2 = alloca i17, align 4                        ; [#uses=2 type=i17*]
  store i17 %__a, i17* %1, align 4
  call void @llvm.dbg.declare(metadata !{i17* %1}, metadata !14083), !dbg !14084 ; [debug line = 120:27] [debug variable = __a]
  store i17 %__b, i17* %2, align 4
  call void @llvm.dbg.declare(metadata !{i17* %2}, metadata !14085), !dbg !14086 ; [debug line = 120:46] [debug variable = __b]
  %3 = load i17* %1, align 4, !dbg !14087         ; [#uses=1 type=i17] [debug line = 121:5]
  %4 = zext i17 %3 to i32, !dbg !14087            ; [#uses=1 type=i32] [debug line = 121:5]
  %5 = load i17* %2, align 4, !dbg !14087         ; [#uses=1 type=i17] [debug line = 121:5]
  %6 = zext i17 %5 to i32, !dbg !14087            ; [#uses=1 type=i32] [debug line = 121:5]
  %7 = or i32 %4, %6, !dbg !14087                 ; [#uses=1 type=i32] [debug line = 121:5]
  %8 = trunc i32 %7 to i17, !dbg !14087           ; [#uses=1 type=i17] [debug line = 121:5]
  ret i17 %8, !dbg !14087                         ; [debug line = 121:5]
}

; [#uses=1]
define void @_ZN5Table4loadERSt14basic_ifstreamIcSt11char_traitsIcEE(%class.Table* %this, %"class.std::basic_ifstream"* %infile) nounwind uwtable align 2 {
  %1 = alloca %class.Table*, align 8              ; [#uses=2 type=%class.Table**]
  %2 = alloca %"class.std::basic_ifstream"*, align 8 ; [#uses=2 type=%"class.std::basic_ifstream"**]
  store %class.Table* %this, %class.Table** %1, align 8
  call void @llvm.dbg.declare(metadata !{%class.Table** %1}, metadata !14089), !dbg !14090 ; [debug line = 37:13] [debug variable = this]
  store %"class.std::basic_ifstream"* %infile, %"class.std::basic_ifstream"** %2, align 8
  call void @llvm.dbg.declare(metadata !{%"class.std::basic_ifstream"** %2}, metadata !14091), !dbg !14092 ; [debug line = 37:28] [debug variable = infile]
  %3 = load %class.Table** %1                     ; [#uses=2 type=%class.Table*]
  %4 = load %"class.std::basic_ifstream"** %2, align 8, !dbg !14093 ; [#uses=1 type=%"class.std::basic_ifstream"*] [debug line = 38:5]
  %5 = bitcast %"class.std::basic_ifstream"* %4 to %"class.std::basic_istream"*, !dbg !14093 ; [#uses=1 type=%"class.std::basic_istream"*] [debug line = 38:5]
  %6 = getelementptr inbounds %class.Table* %3, i32 0, i32 2, !dbg !14093 ; [#uses=1 type=i8**] [debug line = 38:5]
  %7 = load i8** %6, align 8, !dbg !14093         ; [#uses=1 type=i8*] [debug line = 38:5]
  %8 = getelementptr inbounds %class.Table* %3, i32 0, i32 1, !dbg !14093 ; [#uses=1 type=i32*] [debug line = 38:5]
  %9 = load i32* %8, align 4, !dbg !14093         ; [#uses=1 type=i32] [debug line = 38:5]
  %10 = sext i32 %9 to i64, !dbg !14093           ; [#uses=1 type=i64] [debug line = 38:5]
  %11 = call %"class.std::basic_istream"* @_ZNSi4readEPcl(%"class.std::basic_istream"* %5, i8* %7, i64 %10), !dbg !14093 ; [#uses=0 type=%"class.std::basic_istream"*] [debug line = 38:5]
  ret void, !dbg !14095                           ; [debug line = 39:1]
}

; [#uses=1]
declare void @_ZNSt14basic_ifstreamIcSt11char_traitsIcEED1Ev(%"class.std::basic_ifstream"*)

; [#uses=1]
define void @_ZN5TableD2Ev(%class.Table* %this) unnamed_addr nounwind uwtable align 2 {
  %1 = alloca %class.Table*, align 8              ; [#uses=2 type=%class.Table**]
  store %class.Table* %this, %class.Table** %1, align 8
  call void @llvm.dbg.declare(metadata !{%class.Table** %1}, metadata !14096), !dbg !14097 ; [debug line = 27:8] [debug variable = this]
  %2 = load %class.Table** %1                     ; [#uses=1 type=%class.Table*]
  %3 = getelementptr inbounds %class.Table* %2, i32 0, i32 2, !dbg !14098 ; [#uses=1 type=i8**] [debug line = 28:5]
  %4 = load i8** %3, align 8, !dbg !14098         ; [#uses=2 type=i8*] [debug line = 28:5]
  %5 = icmp eq i8* %4, null, !dbg !14098          ; [#uses=1 type=i1] [debug line = 28:5]
  br i1 %5, label %7, label %6, !dbg !14098       ; [debug line = 28:5]

; <label>:6                                       ; preds = %0
  call void @_ZdaPv(i8* %4) nounwind, !dbg !14098 ; [debug line = 28:5]
  br label %7, !dbg !14098                        ; [debug line = 28:5]

; <label>:7                                       ; preds = %6, %0
  ret void, !dbg !14100                           ; [debug line = 29:1]
}

; [#uses=1]
declare void @_ZdaPv(i8*) nounwind

; [#uses=6]
define i32 @_ZN5Table8getValueEi(%class.Table* %this, i32 %index) nounwind uwtable align 2 {
  %1 = alloca %class.Table*, align 8              ; [#uses=2 type=%class.Table**]
  %2 = alloca i32, align 4                        ; [#uses=3 type=i32*]
  %offset = alloca i32, align 4                   ; [#uses=3 type=i32*]
  store %class.Table* %this, %class.Table** %1, align 8
  call void @llvm.dbg.declare(metadata !{%class.Table** %1}, metadata !14101), !dbg !14102 ; [debug line = 31:21] [debug variable = this]
  store i32 %index, i32* %2, align 4
  call void @llvm.dbg.declare(metadata !{i32* %2}, metadata !14103), !dbg !14104 ; [debug line = 31:34] [debug variable = index]
  %3 = load %class.Table** %1                     ; [#uses=1 type=%class.Table*]
  call void @llvm.dbg.declare(metadata !{i32* %offset}, metadata !14105), !dbg !14107 ; [debug line = 33:9] [debug variable = offset]
  %4 = load i32* %2, align 4, !dbg !14108         ; [#uses=1 type=i32] [debug line = 33:25]
  %5 = srem i32 %4, 2, !dbg !14108                ; [#uses=1 type=i32] [debug line = 33:25]
  store i32 %5, i32* %offset, align 4, !dbg !14108 ; [debug line = 33:25]
  %6 = load i32* %2, align 4, !dbg !14109         ; [#uses=1 type=i32] [debug line = 34:5]
  %7 = sdiv i32 %6, 2, !dbg !14109                ; [#uses=1 type=i32] [debug line = 34:5]
  %8 = sext i32 %7 to i64, !dbg !14109            ; [#uses=1 type=i64] [debug line = 34:5]
  %9 = getelementptr inbounds %class.Table* %3, i32 0, i32 2, !dbg !14109 ; [#uses=1 type=i8**] [debug line = 34:5]
  %10 = load i8** %9, align 8, !dbg !14109        ; [#uses=1 type=i8*] [debug line = 34:5]
  %11 = getelementptr inbounds i8* %10, i64 %8, !dbg !14109 ; [#uses=1 type=i8*] [debug line = 34:5]
  %12 = load i8* %11, align 1, !dbg !14109        ; [#uses=1 type=i8] [debug line = 34:5]
  %13 = zext i8 %12 to i32, !dbg !14109           ; [#uses=1 type=i32] [debug line = 34:5]
  %14 = load i32* %offset, align 4, !dbg !14109   ; [#uses=1 type=i32] [debug line = 34:5]
  %15 = sext i32 %14 to i64, !dbg !14109          ; [#uses=1 type=i64] [debug line = 34:5]
  %16 = getelementptr inbounds [2 x i32]* @_ZN5Table17offsetToEntryMaskE, i32 0, i64 %15, !dbg !14109 ; [#uses=1 type=i32*] [debug line = 34:5]
  %17 = load i32* %16, align 4, !dbg !14109       ; [#uses=1 type=i32] [debug line = 34:5]
  %18 = and i32 %13, %17, !dbg !14109             ; [#uses=1 type=i32] [debug line = 34:5]
  %19 = load i32* %offset, align 4, !dbg !14109   ; [#uses=1 type=i32] [debug line = 34:5]
  %20 = sext i32 %19 to i64, !dbg !14109          ; [#uses=1 type=i64] [debug line = 34:5]
  %21 = getelementptr inbounds [2 x i32]* @_ZN5Table18offsetToShiftCountE, i32 0, i64 %20, !dbg !14109 ; [#uses=1 type=i32*] [debug line = 34:5]
  %22 = load i32* %21, align 4, !dbg !14109       ; [#uses=1 type=i32] [debug line = 34:5]
  %23 = lshr i32 %18, %22, !dbg !14109            ; [#uses=1 type=i32] [debug line = 34:5]
  ret i32 %23, !dbg !14109                        ; [debug line = 34:5]
}

; [#uses=1]
declare %"class.std::basic_istream"* @_ZNSi4readEPcl(%"class.std::basic_istream"*, i8*, i64)

; [#uses=0]
define void @_ZN5Table8toStringEv(%class.Table* %this) nounwind uwtable align 2 {
  %1 = alloca %class.Table*, align 8              ; [#uses=2 type=%class.Table**]
  %index = alloca i32, align 4                    ; [#uses=6 type=i32*]
  %2 = alloca %"struct.std::_Setw", align 4       ; [#uses=2 type=%"struct.std::_Setw"*]
  %3 = alloca %"struct.std::_Setw", align 4       ; [#uses=2 type=%"struct.std::_Setw"*]
  store %class.Table* %this, %class.Table** %1, align 8
  call void @llvm.dbg.declare(metadata !{%class.Table** %1}, metadata !14110), !dbg !14111 ; [debug line = 42:13] [debug variable = this]
  %4 = load %class.Table** %1                     ; [#uses=2 type=%class.Table*]
  call void @llvm.dbg.declare(metadata !{i32* %index}, metadata !14112), !dbg !14114 ; [debug line = 43:9] [debug variable = index]
  store i32 0, i32* %index, align 4, !dbg !14115  ; [debug line = 44:10]
  br label %5, !dbg !14115                        ; [debug line = 44:10]

; <label>:5                                       ; preds = %20, %0
  %6 = load i32* %index, align 4, !dbg !14115     ; [#uses=1 type=i32] [debug line = 44:10]
  %7 = getelementptr inbounds %class.Table* %4, i32 0, i32 0, !dbg !14115 ; [#uses=1 type=i32*] [debug line = 44:10]
  %8 = load i32* %7, align 4, !dbg !14115         ; [#uses=1 type=i32] [debug line = 44:10]
  %9 = icmp slt i32 %6, %8, !dbg !14115           ; [#uses=1 type=i1] [debug line = 44:10]
  br i1 %9, label %10, label %23, !dbg !14115     ; [debug line = 44:10]

; <label>:10                                      ; preds = %5
  call void @_ZSt4setwi(%"struct.std::_Setw"* sret %2, i32 7), !dbg !14117 ; [debug line = 45:17]
  %11 = call %"class.std::basic_ostream"* @_ZStlsIcSt11char_traitsIcEERSt13basic_ostreamIT_T0_ES6_St5_Setw(%"class.std::basic_ostream"* @_ZSt4cout, %"struct.std::_Setw"* byval align 8 %2), !dbg !14117 ; [#uses=1 type=%"class.std::basic_ostream"*] [debug line = 45:17]
  %12 = load i32* %index, align 4, !dbg !14117    ; [#uses=1 type=i32] [debug line = 45:17]
  %13 = call %"class.std::basic_ostream"* @_ZNSolsEi(%"class.std::basic_ostream"* %11, i32 %12), !dbg !14117 ; [#uses=1 type=%"class.std::basic_ostream"*] [debug line = 45:17]
  %14 = call %"class.std::basic_ostream"* @_ZStlsISt11char_traitsIcEERSt13basic_ostreamIcT_ES5_PKc(%"class.std::basic_ostream"* %13, i8* getelementptr inbounds ([3 x i8]* @.str18, i32 0, i32 0)), !dbg !14117 ; [#uses=1 type=%"class.std::basic_ostream"*] [debug line = 45:17]
  call void @_ZSt4setwi(%"struct.std::_Setw"* sret %3, i32 2), !dbg !14119 ; [debug line = 45:45]
  %15 = call %"class.std::basic_ostream"* @_ZStlsIcSt11char_traitsIcEERSt13basic_ostreamIT_T0_ES6_St5_Setw(%"class.std::basic_ostream"* %14, %"struct.std::_Setw"* byval align 8 %3), !dbg !14119 ; [#uses=1 type=%"class.std::basic_ostream"*] [debug line = 45:45]
  %16 = load i32* %index, align 4, !dbg !14120    ; [#uses=1 type=i32] [debug line = 45:56]
  %17 = call i32 @_ZN5Table8getValueEi(%class.Table* %4, i32 %16), !dbg !14120 ; [#uses=1 type=i32] [debug line = 45:56]
  %18 = call %"class.std::basic_ostream"* @_ZNSolsEj(%"class.std::basic_ostream"* %15, i32 %17), !dbg !14120 ; [#uses=1 type=%"class.std::basic_ostream"*] [debug line = 45:56]
  %19 = call %"class.std::basic_ostream"* @_ZNSolsEPFRSoS_E(%"class.std::basic_ostream"* %18, %"class.std::basic_ostream"* (%"class.std::basic_ostream"*)* @_ZSt4endlIcSt11char_traitsIcEERSt13basic_ostreamIT_T0_ES6_), !dbg !14120 ; [#uses=0 type=%"class.std::basic_ostream"*] [debug line = 45:56]
  br label %20, !dbg !14121                       ; [debug line = 46:5]

; <label>:20                                      ; preds = %10
  %21 = load i32* %index, align 4, !dbg !14122    ; [#uses=1 type=i32] [debug line = 44:40]
  %22 = add nsw i32 %21, 1, !dbg !14122           ; [#uses=1 type=i32] [debug line = 44:40]
  store i32 %22, i32* %index, align 4, !dbg !14122 ; [debug line = 44:40]
  br label %5, !dbg !14122                        ; [debug line = 44:40]

; <label>:23                                      ; preds = %5
  ret void, !dbg !14123                           ; [debug line = 47:1]
}

; [#uses=2]
declare %"class.std::basic_ostream"* @_ZStlsIcSt11char_traitsIcEERSt13basic_ostreamIT_T0_ES6_St5_Setw(%"class.std::basic_ostream"*, %"struct.std::_Setw"* byval align 8)

; [#uses=2]
define linkonce_odr void @_ZSt4setwi(%"struct.std::_Setw"* noalias sret %agg.result, i32 %__n) nounwind uwtable inlinehint {
  %1 = alloca i32, align 4                        ; [#uses=2 type=i32*]
  store i32 %__n, i32* %1, align 4
  call void @llvm.dbg.declare(metadata !{i32* %1}, metadata !14124), !dbg !14125 ; [debug line = 223:12] [debug variable = __n]
  %2 = getelementptr inbounds %"struct.std::_Setw"* %agg.result, i32 0, i32 0, !dbg !14126 ; [#uses=1 type=i32*] [debug line = 224:5]
  %3 = load i32* %1, align 4, !dbg !14126         ; [#uses=1 type=i32] [debug line = 224:5]
  store i32 %3, i32* %2, align 4, !dbg !14126     ; [debug line = 224:5]
  ret void, !dbg !14126                           ; [debug line = 224:5]
}

; [#uses=1]
declare %"class.std::basic_ostream"* @_ZNSolsEj(%"class.std::basic_ostream"*, i32)

; [#uses=5]
define i32 @_ZN5Table6sizeOfEv(%class.Table* %this) nounwind uwtable align 2 {
  %1 = alloca %class.Table*, align 8              ; [#uses=2 type=%class.Table**]
  store %class.Table* %this, %class.Table** %1, align 8
  call void @llvm.dbg.declare(metadata !{%class.Table** %1}, metadata !14128), !dbg !14129 ; [debug line = 49:12] [debug variable = this]
  %2 = load %class.Table** %1                     ; [#uses=1 type=%class.Table*]
  %3 = getelementptr inbounds %class.Table* %2, i32 0, i32 0, !dbg !14130 ; [#uses=1 type=i32*] [debug line = 50:5]
  %4 = load i32* %3, align 4, !dbg !14130         ; [#uses=1 type=i32] [debug line = 50:5]
  ret i32 %4, !dbg !14130                         ; [debug line = 50:5]
}

; [#uses=1]
define internal void @_GLOBAL__I_a12() nounwind section ".text.startup" {
  call void @__cxx_global_var_init10()
  ret void
}

; [#uses=1]
define internal void @__cxx_global_var_init21() nounwind section ".text.startup" {
  call void @_ZNSt8ios_base4InitC1Ev(%"class.std::ios_base::Init"* @_ZStL8__ioinit13)
  %1 = call i32 @atexit(void ()* @__dtor__ZStL8__ioinit22) ; [#uses=0 type=i32]
  ret void
}

; [#uses=1]
define internal void @__dtor__ZStL8__ioinit22() nounwind section ".text.startup" {
  call void @_ZNSt8ios_base4InitD1Ev(%"class.std::ios_base::Init"* @_ZStL8__ioinit13)
  ret void
}

; [#uses=1]
define void @_ZN11RubikSolverC2Ev(%class.RubikSolver* %this) unnamed_addr nounwind uwtable align 2 {
  %1 = alloca %class.RubikSolver*, align 8        ; [#uses=2 type=%class.RubikSolver**]
  store %class.RubikSolver* %this, %class.RubikSolver** %1, align 8
  call void @llvm.dbg.declare(metadata !{%class.RubikSolver** %1}, metadata !14132), !dbg !14134 ; [debug line = 11:14] [debug variable = this]
  %2 = load %class.RubikSolver** %1               ; [#uses=9 type=%class.RubikSolver*]
  %3 = getelementptr inbounds %class.RubikSolver* %2, i32 0, i32 8, !dbg !14135 ; [#uses=2 type=[576 x %class.RubikCube]*] [debug line = 19:1]
  %4 = getelementptr inbounds [576 x %class.RubikCube]* %3, i32 0, i32 0, !dbg !14135 ; [#uses=0 type=%class.RubikCube*] [debug line = 19:1]
  br label %arrayctor.loop

arrayctor.loop:                                   ; preds = %arrayctor.loop, %0
  %5 = phi i32 [ 0, %0 ], [ %6, %arrayctor.loop ], !dbg !14135 ; [#uses=3 type=i32] [debug line = 19:1]
  %6 = add i32 %5, 1, !dbg !14135                 ; [#uses=1 type=i32] [debug line = 19:1]
  %7 = getelementptr inbounds [576 x %class.RubikCube]* %3, i32 0, i32 %5, !dbg !14135 ; [#uses=1 type=%class.RubikCube*] [debug line = 19:1]
  call void @_ZN9RubikCubeC1Ev(%class.RubikCube* %7), !dbg !14135 ; [debug line = 19:1]
  %8 = icmp eq i32 %5, 575, !dbg !14135           ; [#uses=1 type=i1] [debug line = 19:1]
  br i1 %8, label %9, label %arrayctor.loop, !dbg !14135 ; [debug line = 19:1]

; <label>:9                                       ; preds = %arrayctor.loop
  br label %10, !dbg !14135                       ; [debug line = 19:1]

; <label>:10                                      ; preds = %9
  %11 = getelementptr inbounds %class.RubikSolver* %2, i32 0, i32 9, !dbg !14135 ; [#uses=2 type=[576 x %class.RubikCube]*] [debug line = 19:1]
  %12 = getelementptr inbounds [576 x %class.RubikCube]* %11, i32 0, i32 0, !dbg !14135 ; [#uses=0 type=%class.RubikCube*] [debug line = 19:1]
  br label %arrayctor.loop1

arrayctor.loop1:                                  ; preds = %arrayctor.loop1, %10
  %13 = phi i32 [ 0, %10 ], [ %14, %arrayctor.loop1 ], !dbg !14135 ; [#uses=3 type=i32] [debug line = 19:1]
  %14 = add i32 %13, 1, !dbg !14135               ; [#uses=1 type=i32] [debug line = 19:1]
  %15 = getelementptr inbounds [576 x %class.RubikCube]* %11, i32 0, i32 %13, !dbg !14135 ; [#uses=1 type=%class.RubikCube*] [debug line = 19:1]
  call void @_ZN9RubikCubeC1Ev(%class.RubikCube* %15), !dbg !14135 ; [debug line = 19:1]
  %16 = icmp eq i32 %13, 575, !dbg !14135         ; [#uses=1 type=i1] [debug line = 19:1]
  br i1 %16, label %17, label %arrayctor.loop1, !dbg !14135 ; [debug line = 19:1]

; <label>:17                                      ; preds = %arrayctor.loop1
  br label %18, !dbg !14135                       ; [debug line = 19:1]

; <label>:18                                      ; preds = %17
  %19 = getelementptr inbounds %class.RubikSolver* %2, i32 0, i32 19, !dbg !14135 ; [#uses=1 type=%class.RubikCube*] [debug line = 19:1]
  call void @_ZN9RubikCubeC1Ev(%class.RubikCube* %19), !dbg !14135 ; [debug line = 19:1]
  %20 = getelementptr inbounds %class.RubikSolver* %2, i32 0, i32 20, !dbg !14135 ; [#uses=1 type=%class.Table*] [debug line = 19:1]
  call void @_ZN5TableC1Eii(%class.Table* %20, i32 2187, i32 2048), !dbg !14135 ; [debug line = 19:1]
  %21 = getelementptr inbounds %class.RubikSolver* %2, i32 0, i32 21, !dbg !14135 ; [#uses=1 type=%class.Table*] [debug line = 19:1]
  call void @_ZN5TableC1Eii(%class.Table* %21, i32 2187, i32 495), !dbg !14135 ; [debug line = 19:1]
  %22 = getelementptr inbounds %class.RubikSolver* %2, i32 0, i32 22, !dbg !14135 ; [#uses=1 type=%class.Table*] [debug line = 19:1]
  call void @_ZN5TableC1Eii(%class.Table* %22, i32 2048, i32 495), !dbg !14135 ; [debug line = 19:1]
  %23 = getelementptr inbounds %class.RubikSolver* %2, i32 0, i32 23, !dbg !14135 ; [#uses=1 type=%class.Table*] [debug line = 19:1]
  call void @_ZN5TableC1Eii(%class.Table* %23, i32 40320, i32 24), !dbg !14135 ; [debug line = 19:1]
  %24 = getelementptr inbounds %class.RubikSolver* %2, i32 0, i32 24, !dbg !14135 ; [#uses=1 type=%class.Table*] [debug line = 19:1]
  call void @_ZN5TableC1Eii(%class.Table* %24, i32 40320, i32 24), !dbg !14135 ; [debug line = 19:1]
  %25 = getelementptr inbounds %class.RubikSolver* %2, i32 0, i32 18, !dbg !14136 ; [#uses=1 type=i32*] [debug line = 20:5]
  store i32 10000, i32* %25, align 4, !dbg !14136 ; [debug line = 20:5]
  ret void, !dbg !14138                           ; [debug line = 21:1]
}

; [#uses=1]
define void @_ZN11RubikSolverD2Ev(%class.RubikSolver* %this) unnamed_addr nounwind uwtable align 2 {
  %1 = alloca %class.RubikSolver*, align 8        ; [#uses=2 type=%class.RubikSolver**]
  store %class.RubikSolver* %this, %class.RubikSolver** %1, align 8
  call void @llvm.dbg.declare(metadata !{%class.RubikSolver** %1}, metadata !14139), !dbg !14140 ; [debug line = 23:14] [debug variable = this]
  %2 = load %class.RubikSolver** %1               ; [#uses=8 type=%class.RubikSolver*]
  %3 = getelementptr inbounds %class.RubikSolver* %2, i32 0, i32 24, !dbg !14141 ; [#uses=1 type=%class.Table*] [debug line = 23:14]
  call void @_ZN5TableD1Ev(%class.Table* %3), !dbg !14141 ; [debug line = 23:14]
  %4 = getelementptr inbounds %class.RubikSolver* %2, i32 0, i32 23, !dbg !14141 ; [#uses=1 type=%class.Table*] [debug line = 23:14]
  call void @_ZN5TableD1Ev(%class.Table* %4), !dbg !14141 ; [debug line = 23:14]
  %5 = getelementptr inbounds %class.RubikSolver* %2, i32 0, i32 22, !dbg !14141 ; [#uses=1 type=%class.Table*] [debug line = 23:14]
  call void @_ZN5TableD1Ev(%class.Table* %5), !dbg !14141 ; [debug line = 23:14]
  %6 = getelementptr inbounds %class.RubikSolver* %2, i32 0, i32 21, !dbg !14141 ; [#uses=1 type=%class.Table*] [debug line = 23:14]
  call void @_ZN5TableD1Ev(%class.Table* %6), !dbg !14141 ; [debug line = 23:14]
  %7 = getelementptr inbounds %class.RubikSolver* %2, i32 0, i32 20, !dbg !14141 ; [#uses=1 type=%class.Table*] [debug line = 23:14]
  call void @_ZN5TableD1Ev(%class.Table* %7), !dbg !14141 ; [debug line = 23:14]
  %8 = getelementptr inbounds %class.RubikSolver* %2, i32 0, i32 19, !dbg !14141 ; [#uses=1 type=%class.RubikCube*] [debug line = 23:14]
  call void @_ZN9RubikCubeD1Ev(%class.RubikCube* %8), !dbg !14141 ; [debug line = 23:14]
  %9 = getelementptr inbounds %class.RubikSolver* %2, i32 0, i32 9, !dbg !14141 ; [#uses=1 type=[576 x %class.RubikCube]*] [debug line = 23:14]
  %10 = getelementptr inbounds [576 x %class.RubikCube]* %9, i32 0, i32 0, !dbg !14141 ; [#uses=2 type=%class.RubikCube*] [debug line = 23:14]
  %11 = getelementptr inbounds %class.RubikCube* %10, i64 576, !dbg !14141 ; [#uses=1 type=%class.RubikCube*] [debug line = 23:14]
  br label %12, !dbg !14141                       ; [debug line = 23:14]

; <label>:12                                      ; preds = %12, %0
  %13 = phi %class.RubikCube* [ %11, %0 ], [ %14, %12 ], !dbg !14141 ; [#uses=1 type=%class.RubikCube*] [debug line = 23:14]
  %14 = getelementptr inbounds %class.RubikCube* %13, i64 -1, !dbg !14141 ; [#uses=3 type=%class.RubikCube*] [debug line = 23:14]
  call void @_ZN9RubikCubeD1Ev(%class.RubikCube* %14), !dbg !14141 ; [debug line = 23:14]
  %15 = icmp eq %class.RubikCube* %14, %10, !dbg !14141 ; [#uses=1 type=i1] [debug line = 23:14]
  br i1 %15, label %16, label %12, !dbg !14141    ; [debug line = 23:14]

; <label>:16                                      ; preds = %12
  %17 = getelementptr inbounds %class.RubikSolver* %2, i32 0, i32 8, !dbg !14141 ; [#uses=1 type=[576 x %class.RubikCube]*] [debug line = 23:14]
  %18 = getelementptr inbounds [576 x %class.RubikCube]* %17, i32 0, i32 0, !dbg !14141 ; [#uses=2 type=%class.RubikCube*] [debug line = 23:14]
  %19 = getelementptr inbounds %class.RubikCube* %18, i64 576, !dbg !14141 ; [#uses=1 type=%class.RubikCube*] [debug line = 23:14]
  br label %20, !dbg !14141                       ; [debug line = 23:14]

; <label>:20                                      ; preds = %20, %16
  %21 = phi %class.RubikCube* [ %19, %16 ], [ %22, %20 ], !dbg !14141 ; [#uses=1 type=%class.RubikCube*] [debug line = 23:14]
  %22 = getelementptr inbounds %class.RubikCube* %21, i64 -1, !dbg !14141 ; [#uses=3 type=%class.RubikCube*] [debug line = 23:14]
  call void @_ZN9RubikCubeD1Ev(%class.RubikCube* %22), !dbg !14141 ; [debug line = 23:14]
  %23 = icmp eq %class.RubikCube* %22, %18, !dbg !14141 ; [#uses=1 type=i1] [debug line = 23:14]
  br i1 %23, label %24, label %20, !dbg !14141    ; [debug line = 23:14]

; <label>:24                                      ; preds = %20
  ret void, !dbg !14141                           ; [debug line = 23:14]
}

; [#uses=1]
define void @_ZN11RubikSolver10initTablesEv(%class.RubikSolver* %this) nounwind uwtable align 2 {
  %1 = alloca %class.RubikSolver*, align 8        ; [#uses=2 type=%class.RubikSolver**]
  store %class.RubikSolver* %this, %class.RubikSolver** %1, align 8
  call void @llvm.dbg.declare(metadata !{%class.RubikSolver** %1}, metadata !14143), !dbg !14144 ; [debug line = 25:19] [debug variable = this]
  %2 = load %class.RubikSolver** %1               ; [#uses=10 type=%class.RubikSolver*]
  %3 = call %"class.std::basic_ostream"* @_ZStlsISt11char_traitsIcEERSt13basic_ostreamIcT_ES5_PKc(%"class.std::basic_ostream"* @_ZSt4cout, i8* getelementptr inbounds ([38 x i8]* @.str14, i32 0, i32 0)), !dbg !14145 ; [#uses=1 type=%"class.std::basic_ostream"*] [debug line = 30:5]
  %4 = call %"class.std::basic_ostream"* @_ZNSolsEPFRSoS_E(%"class.std::basic_ostream"* %3, %"class.std::basic_ostream"* (%"class.std::basic_ostream"*)* @_ZSt4endlIcSt11char_traitsIcEERSt13basic_ostreamIT_T0_ES6_), !dbg !14145 ; [#uses=0 type=%"class.std::basic_ostream"*] [debug line = 30:5]
  %5 = getelementptr inbounds %class.RubikSolver* %2, i32 0, i32 20, !dbg !14147 ; [#uses=1 type=%class.Table*] [debug line = 31:5]
  call void @_ZN5Table4initEPKc(%class.Table* %5, i8* getelementptr inbounds ([24 x i8]* @.str115, i32 0, i32 0)), !dbg !14147 ; [debug line = 31:5]
  %6 = call %"class.std::basic_ostream"* @_ZStlsISt11char_traitsIcEERSt13basic_ostreamIcT_ES5_PKc(%"class.std::basic_ostream"* @_ZSt4cout, i8* getelementptr inbounds ([8 x i8]* @.str216, i32 0, i32 0)), !dbg !14148 ; [#uses=1 type=%"class.std::basic_ostream"*] [debug line = 32:5]
  %7 = getelementptr inbounds %class.RubikSolver* %2, i32 0, i32 20, !dbg !14149 ; [#uses=1 type=%class.Table*] [debug line = 32:26]
  %8 = call i32 @_ZN5Table6sizeOfEv(%class.Table* %7), !dbg !14149 ; [#uses=1 type=i32] [debug line = 32:26]
  %9 = call %"class.std::basic_ostream"* @_ZNSolsEi(%"class.std::basic_ostream"* %6, i32 %8), !dbg !14149 ; [#uses=1 type=%"class.std::basic_ostream"*] [debug line = 32:26]
  %10 = call %"class.std::basic_ostream"* @_ZNSolsEPFRSoS_E(%"class.std::basic_ostream"* %9, %"class.std::basic_ostream"* (%"class.std::basic_ostream"*)* @_ZSt4endlIcSt11char_traitsIcEERSt13basic_ostreamIT_T0_ES6_), !dbg !14149 ; [#uses=0 type=%"class.std::basic_ostream"*] [debug line = 32:26]
  %11 = call %"class.std::basic_ostream"* @_ZStlsISt11char_traitsIcEERSt13basic_ostreamIcT_ES5_PKc(%"class.std::basic_ostream"* @_ZSt4cout, i8* getelementptr inbounds ([40 x i8]* @.str3, i32 0, i32 0)), !dbg !14150 ; [#uses=1 type=%"class.std::basic_ostream"*] [debug line = 34:5]
  %12 = call %"class.std::basic_ostream"* @_ZNSolsEPFRSoS_E(%"class.std::basic_ostream"* %11, %"class.std::basic_ostream"* (%"class.std::basic_ostream"*)* @_ZSt4endlIcSt11char_traitsIcEERSt13basic_ostreamIT_T0_ES6_), !dbg !14150 ; [#uses=0 type=%"class.std::basic_ostream"*] [debug line = 34:5]
  %13 = getelementptr inbounds %class.RubikSolver* %2, i32 0, i32 21, !dbg !14151 ; [#uses=1 type=%class.Table*] [debug line = 35:5]
  call void @_ZN5Table4initEPKc(%class.Table* %13, i8* getelementptr inbounds ([24 x i8]* @.str4, i32 0, i32 0)), !dbg !14151 ; [debug line = 35:5]
  %14 = call %"class.std::basic_ostream"* @_ZStlsISt11char_traitsIcEERSt13basic_ostreamIcT_ES5_PKc(%"class.std::basic_ostream"* @_ZSt4cout, i8* getelementptr inbounds ([8 x i8]* @.str216, i32 0, i32 0)), !dbg !14152 ; [#uses=1 type=%"class.std::basic_ostream"*] [debug line = 36:5]
  %15 = getelementptr inbounds %class.RubikSolver* %2, i32 0, i32 21, !dbg !14153 ; [#uses=1 type=%class.Table*] [debug line = 36:26]
  %16 = call i32 @_ZN5Table6sizeOfEv(%class.Table* %15), !dbg !14153 ; [#uses=1 type=i32] [debug line = 36:26]
  %17 = call %"class.std::basic_ostream"* @_ZNSolsEi(%"class.std::basic_ostream"* %14, i32 %16), !dbg !14153 ; [#uses=1 type=%"class.std::basic_ostream"*] [debug line = 36:26]
  %18 = call %"class.std::basic_ostream"* @_ZNSolsEPFRSoS_E(%"class.std::basic_ostream"* %17, %"class.std::basic_ostream"* (%"class.std::basic_ostream"*)* @_ZSt4endlIcSt11char_traitsIcEERSt13basic_ostreamIT_T0_ES6_), !dbg !14153 ; [#uses=0 type=%"class.std::basic_ostream"*] [debug line = 36:26]
  %19 = call %"class.std::basic_ostream"* @_ZStlsISt11char_traitsIcEERSt13basic_ostreamIcT_ES5_PKc(%"class.std::basic_ostream"* @_ZSt4cout, i8* getelementptr inbounds ([39 x i8]* @.str5, i32 0, i32 0)), !dbg !14154 ; [#uses=1 type=%"class.std::basic_ostream"*] [debug line = 38:5]
  %20 = call %"class.std::basic_ostream"* @_ZNSolsEPFRSoS_E(%"class.std::basic_ostream"* %19, %"class.std::basic_ostream"* (%"class.std::basic_ostream"*)* @_ZSt4endlIcSt11char_traitsIcEERSt13basic_ostreamIT_T0_ES6_), !dbg !14154 ; [#uses=0 type=%"class.std::basic_ostream"*] [debug line = 38:5]
  %21 = getelementptr inbounds %class.RubikSolver* %2, i32 0, i32 22, !dbg !14155 ; [#uses=1 type=%class.Table*] [debug line = 39:5]
  call void @_ZN5Table4initEPKc(%class.Table* %21, i8* getelementptr inbounds ([24 x i8]* @.str6, i32 0, i32 0)), !dbg !14155 ; [debug line = 39:5]
  %22 = call %"class.std::basic_ostream"* @_ZStlsISt11char_traitsIcEERSt13basic_ostreamIcT_ES5_PKc(%"class.std::basic_ostream"* @_ZSt4cout, i8* getelementptr inbounds ([8 x i8]* @.str216, i32 0, i32 0)), !dbg !14156 ; [#uses=1 type=%"class.std::basic_ostream"*] [debug line = 40:5]
  %23 = getelementptr inbounds %class.RubikSolver* %2, i32 0, i32 22, !dbg !14157 ; [#uses=1 type=%class.Table*] [debug line = 40:26]
  %24 = call i32 @_ZN5Table6sizeOfEv(%class.Table* %23), !dbg !14157 ; [#uses=1 type=i32] [debug line = 40:26]
  %25 = call %"class.std::basic_ostream"* @_ZNSolsEi(%"class.std::basic_ostream"* %22, i32 %24), !dbg !14157 ; [#uses=1 type=%"class.std::basic_ostream"*] [debug line = 40:26]
  %26 = call %"class.std::basic_ostream"* @_ZNSolsEPFRSoS_E(%"class.std::basic_ostream"* %25, %"class.std::basic_ostream"* (%"class.std::basic_ostream"*)* @_ZSt4endlIcSt11char_traitsIcEERSt13basic_ostreamIT_T0_ES6_), !dbg !14157 ; [#uses=0 type=%"class.std::basic_ostream"*] [debug line = 40:26]
  %27 = call %"class.std::basic_ostream"* @_ZStlsISt11char_traitsIcEERSt13basic_ostreamIcT_ES5_PKc(%"class.std::basic_ostream"* @_ZSt4cout, i8* getelementptr inbounds ([40 x i8]* @.str717, i32 0, i32 0)), !dbg !14158 ; [#uses=1 type=%"class.std::basic_ostream"*] [debug line = 44:5]
  %28 = call %"class.std::basic_ostream"* @_ZNSolsEPFRSoS_E(%"class.std::basic_ostream"* %27, %"class.std::basic_ostream"* (%"class.std::basic_ostream"*)* @_ZSt4endlIcSt11char_traitsIcEERSt13basic_ostreamIT_T0_ES6_), !dbg !14158 ; [#uses=0 type=%"class.std::basic_ostream"*] [debug line = 44:5]
  %29 = getelementptr inbounds %class.RubikSolver* %2, i32 0, i32 23, !dbg !14159 ; [#uses=1 type=%class.Table*] [debug line = 45:5]
  call void @_ZN5Table4initEPKc(%class.Table* %29, i8* getelementptr inbounds ([24 x i8]* @.str8, i32 0, i32 0)), !dbg !14159 ; [debug line = 45:5]
  %30 = call %"class.std::basic_ostream"* @_ZStlsISt11char_traitsIcEERSt13basic_ostreamIcT_ES5_PKc(%"class.std::basic_ostream"* @_ZSt4cout, i8* getelementptr inbounds ([8 x i8]* @.str216, i32 0, i32 0)), !dbg !14160 ; [#uses=1 type=%"class.std::basic_ostream"*] [debug line = 46:5]
  %31 = getelementptr inbounds %class.RubikSolver* %2, i32 0, i32 23, !dbg !14161 ; [#uses=1 type=%class.Table*] [debug line = 46:26]
  %32 = call i32 @_ZN5Table6sizeOfEv(%class.Table* %31), !dbg !14161 ; [#uses=1 type=i32] [debug line = 46:26]
  %33 = call %"class.std::basic_ostream"* @_ZNSolsEi(%"class.std::basic_ostream"* %30, i32 %32), !dbg !14161 ; [#uses=1 type=%"class.std::basic_ostream"*] [debug line = 46:26]
  %34 = call %"class.std::basic_ostream"* @_ZNSolsEPFRSoS_E(%"class.std::basic_ostream"* %33, %"class.std::basic_ostream"* (%"class.std::basic_ostream"*)* @_ZSt4endlIcSt11char_traitsIcEERSt13basic_ostreamIT_T0_ES6_), !dbg !14161 ; [#uses=0 type=%"class.std::basic_ostream"*] [debug line = 46:26]
  %35 = call %"class.std::basic_ostream"* @_ZStlsISt11char_traitsIcEERSt13basic_ostreamIcT_ES5_PKc(%"class.std::basic_ostream"* @_ZSt4cout, i8* getelementptr inbounds ([38 x i8]* @.str9, i32 0, i32 0)), !dbg !14162 ; [#uses=1 type=%"class.std::basic_ostream"*] [debug line = 48:5]
  %36 = call %"class.std::basic_ostream"* @_ZNSolsEPFRSoS_E(%"class.std::basic_ostream"* %35, %"class.std::basic_ostream"* (%"class.std::basic_ostream"*)* @_ZSt4endlIcSt11char_traitsIcEERSt13basic_ostreamIT_T0_ES6_), !dbg !14162 ; [#uses=0 type=%"class.std::basic_ostream"*] [debug line = 48:5]
  %37 = getelementptr inbounds %class.RubikSolver* %2, i32 0, i32 24, !dbg !14163 ; [#uses=1 type=%class.Table*] [debug line = 49:5]
  call void @_ZN5Table4initEPKc(%class.Table* %37, i8* getelementptr inbounds ([24 x i8]* @.str10, i32 0, i32 0)), !dbg !14163 ; [debug line = 49:5]
  %38 = call %"class.std::basic_ostream"* @_ZStlsISt11char_traitsIcEERSt13basic_ostreamIcT_ES5_PKc(%"class.std::basic_ostream"* @_ZSt4cout, i8* getelementptr inbounds ([8 x i8]* @.str216, i32 0, i32 0)), !dbg !14164 ; [#uses=1 type=%"class.std::basic_ostream"*] [debug line = 50:5]
  %39 = getelementptr inbounds %class.RubikSolver* %2, i32 0, i32 24, !dbg !14165 ; [#uses=1 type=%class.Table*] [debug line = 50:26]
  %40 = call i32 @_ZN5Table6sizeOfEv(%class.Table* %39), !dbg !14165 ; [#uses=1 type=i32] [debug line = 50:26]
  %41 = call %"class.std::basic_ostream"* @_ZNSolsEi(%"class.std::basic_ostream"* %38, i32 %40), !dbg !14165 ; [#uses=1 type=%"class.std::basic_ostream"*] [debug line = 50:26]
  %42 = call %"class.std::basic_ostream"* @_ZNSolsEPFRSoS_E(%"class.std::basic_ostream"* %41, %"class.std::basic_ostream"* (%"class.std::basic_ostream"*)* @_ZSt4endlIcSt11char_traitsIcEERSt13basic_ostreamIT_T0_ES6_), !dbg !14165 ; [#uses=0 type=%"class.std::basic_ostream"*] [debug line = 50:26]
  ret void, !dbg !14166                           ; [debug line = 51:1]
}

; [#uses=1]
define i32 @_ZN11RubikSolver5solveER9RubikCube(%class.RubikSolver* %this, %class.RubikCube* %scrambledCube) nounwind uwtable align 2 {
  %1 = alloca %class.RubikSolver*, align 8        ; [#uses=2 type=%class.RubikSolver**]
  %2 = alloca %class.RubikCube*, align 8          ; [#uses=2 type=%class.RubikCube**]
  %iteration = alloca i32, align 4                ; [#uses=4 type=i32*]
  %result = alloca i32, align 4                   ; [#uses=4 type=i32*]
  %3 = alloca %class.RubikCube, align 8           ; [#uses=3 type=%class.RubikCube*]
  store %class.RubikSolver* %this, %class.RubikSolver** %1, align 8
  call void @llvm.dbg.declare(metadata !{%class.RubikSolver** %1}, metadata !14167), !dbg !14168 ; [debug line = 53:18] [debug variable = this]
  store %class.RubikCube* %scrambledCube, %class.RubikCube** %2, align 8
  call void @llvm.dbg.declare(metadata !{%class.RubikCube** %2}, metadata !14169), !dbg !14170 ; [debug line = 53:35] [debug variable = scrambledCube]
  %4 = load %class.RubikSolver** %1               ; [#uses=15 type=%class.RubikSolver*]
  call void @llvm.dbg.declare(metadata !{i32* %iteration}, metadata !14171), !dbg !14173 ; [debug line = 55:9] [debug variable = iteration]
  store i32 1, i32* %iteration, align 4, !dbg !14174 ; [debug line = 55:22]
  call void @llvm.dbg.declare(metadata !{i32* %result}, metadata !14175), !dbg !14176 ; [debug line = 56:9] [debug variable = result]
  store i32 0, i32* %result, align 4, !dbg !14177 ; [debug line = 56:27]
  %5 = getelementptr inbounds %class.RubikSolver* %4, i32 0, i32 19, !dbg !14178 ; [#uses=1 type=%class.RubikCube*] [debug line = 58:5]
  %6 = load %class.RubikCube** %2, align 8, !dbg !14178 ; [#uses=1 type=%class.RubikCube*] [debug line = 58:5]
  %7 = call %class.RubikCube* @_ZN9RubikCubeaSERKS_(%class.RubikCube* %5, %class.RubikCube* %6) nounwind, !dbg !14178 ; [#uses=0 type=%class.RubikCube*] [debug line = 58:5]
  %8 = getelementptr inbounds %class.RubikSolver* %4, i32 0, i32 19, !dbg !14179 ; [#uses=1 type=%class.RubikCube*] [debug line = 61:29]
  %9 = call i32 @_ZN9RubikCube8getTwistEv(%class.RubikCube* %8), !dbg !14179 ; [#uses=1 type=i32] [debug line = 61:29]
  %10 = getelementptr inbounds %class.RubikSolver* %4, i32 0, i32 19, !dbg !14180 ; [#uses=1 type=%class.RubikCube*] [debug line = 61:46]
  %11 = call i32 @_ZN9RubikCube7getFlipEv(%class.RubikCube* %10), !dbg !14180 ; [#uses=1 type=i32] [debug line = 61:46]
  %12 = getelementptr inbounds %class.RubikSolver* %4, i32 0, i32 19, !dbg !14181 ; [#uses=1 type=%class.RubikCube*] [debug line = 61:62]
  %13 = call i32 @_ZN9RubikCube9getChoiceEv(%class.RubikCube* %12), !dbg !14181 ; [#uses=1 type=i32] [debug line = 61:62]
  %14 = call i32 @_ZN11RubikSolver10phase1CostEiii(%class.RubikSolver* %4, i32 %9, i32 %11, i32 %13), !dbg !14181 ; [#uses=1 type=i32] [debug line = 61:62]
  %15 = getelementptr inbounds %class.RubikSolver* %4, i32 0, i32 2, !dbg !14181 ; [#uses=1 type=i32*] [debug line = 61:62]
  store i32 %14, i32* %15, align 4, !dbg !14181   ; [debug line = 61:62]
  %16 = getelementptr inbounds %class.RubikSolver* %4, i32 0, i32 0, !dbg !14182 ; [#uses=1 type=i32*] [debug line = 63:5]
  store i32 1, i32* %16, align 4, !dbg !14182     ; [debug line = 63:5]
  %17 = getelementptr inbounds %class.RubikSolver* %4, i32 0, i32 16, !dbg !14183 ; [#uses=1 type=i32*] [debug line = 64:5]
  store i32 0, i32* %17, align 4, !dbg !14183     ; [debug line = 64:5]
  br label %18, !dbg !14184                       ; [debug line = 66:5]

; <label>:18                                      ; preds = %35, %0
  %19 = call %"class.std::basic_ostream"* @_ZStlsISt11char_traitsIcEERSt13basic_ostreamIcT_ES5_PKc(%"class.std::basic_ostream"* @_ZSt4cout, i8* getelementptr inbounds ([11 x i8]* @.str11, i32 0, i32 0)), !dbg !14185 ; [#uses=1 type=%"class.std::basic_ostream"*] [debug line = 68:9]
  %20 = load i32* %iteration, align 4, !dbg !14185 ; [#uses=1 type=i32] [debug line = 68:9]
  %21 = call %"class.std::basic_ostream"* @_ZNSolsEi(%"class.std::basic_ostream"* %19, i32 %20), !dbg !14185 ; [#uses=1 type=%"class.std::basic_ostream"*] [debug line = 68:9]
  %22 = call %"class.std::basic_ostream"* @_ZStlsISt11char_traitsIcEERSt13basic_ostreamIcT_ES5_PKc(%"class.std::basic_ostream"* %21, i8* getelementptr inbounds ([5 x i8]* @.str12, i32 0, i32 0)), !dbg !14185 ; [#uses=1 type=%"class.std::basic_ostream"*] [debug line = 68:9]
  %23 = getelementptr inbounds %class.RubikSolver* %4, i32 0, i32 2, !dbg !14185 ; [#uses=1 type=i32*] [debug line = 68:9]
  %24 = load i32* %23, align 4, !dbg !14185       ; [#uses=1 type=i32] [debug line = 68:9]
  %25 = call %"class.std::basic_ostream"* @_ZNSolsEi(%"class.std::basic_ostream"* %22, i32 %24), !dbg !14185 ; [#uses=1 type=%"class.std::basic_ostream"*] [debug line = 68:9]
  %26 = call %"class.std::basic_ostream"* @_ZNSolsEPFRSoS_E(%"class.std::basic_ostream"* %25, %"class.std::basic_ostream"* (%"class.std::basic_ostream"*)* @_ZSt4endlIcSt11char_traitsIcEERSt13basic_ostreamIT_T0_ES6_), !dbg !14185 ; [#uses=0 type=%"class.std::basic_ostream"*] [debug line = 68:9]
  %27 = getelementptr inbounds %class.RubikSolver* %4, i32 0, i32 4, !dbg !14187 ; [#uses=1 type=i32*] [debug line = 71:9]
  store i32 10000, i32* %27, align 4, !dbg !14187 ; [debug line = 71:9]
  %28 = getelementptr inbounds %class.RubikSolver* %4, i32 0, i32 19, !dbg !14188 ; [#uses=1 type=%class.RubikCube*] [debug line = 75:18]
  call void @_ZN9RubikCubeC1ERKS_(%class.RubikCube* %3, %class.RubikCube* %28) nounwind, !dbg !14188 ; [debug line = 75:18]
  %29 = call i32 @_ZN11RubikSolver21iterativeSearchPhase1E9RubikCube(%class.RubikSolver* %4, %class.RubikCube* %3), !dbg !14188 ; [#uses=1 type=i32] [debug line = 75:18]
  store i32 %29, i32* %result, align 4, !dbg !14188 ; [debug line = 75:18]
  call void @_ZN9RubikCubeD1Ev(%class.RubikCube* %3), !dbg !14188 ; [debug line = 75:18]
  %30 = getelementptr inbounds %class.RubikSolver* %4, i32 0, i32 4, !dbg !14189 ; [#uses=1 type=i32*] [debug line = 78:9]
  %31 = load i32* %30, align 4, !dbg !14189       ; [#uses=1 type=i32] [debug line = 78:9]
  %32 = getelementptr inbounds %class.RubikSolver* %4, i32 0, i32 2, !dbg !14189 ; [#uses=1 type=i32*] [debug line = 78:9]
  store i32 %31, i32* %32, align 4, !dbg !14189   ; [debug line = 78:9]
  %33 = load i32* %iteration, align 4, !dbg !14190 ; [#uses=1 type=i32] [debug line = 81:9]
  %34 = add nsw i32 %33, 1, !dbg !14190           ; [#uses=1 type=i32] [debug line = 81:9]
  store i32 %34, i32* %iteration, align 4, !dbg !14190 ; [debug line = 81:9]
  br label %35, !dbg !14191                       ; [debug line = 82:5]

; <label>:35                                      ; preds = %18
  %36 = load i32* %result, align 4, !dbg !14191   ; [#uses=1 type=i32] [debug line = 82:5]
  %37 = icmp eq i32 %36, 0, !dbg !14191           ; [#uses=1 type=i1] [debug line = 82:5]
  br i1 %37, label %18, label %38, !dbg !14191    ; [debug line = 82:5]

; <label>:38                                      ; preds = %35
  %39 = call %"class.std::basic_ostream"* @_ZStlsISt11char_traitsIcEERSt13basic_ostreamIcT_ES5_PKc(%"class.std::basic_ostream"* @_ZSt4cout, i8* getelementptr inbounds ([17 x i8]* @.str13, i32 0, i32 0)), !dbg !14192 ; [#uses=1 type=%"class.std::basic_ostream"*] [debug line = 84:5]
  %40 = getelementptr inbounds %class.RubikSolver* %4, i32 0, i32 0, !dbg !14192 ; [#uses=1 type=i32*] [debug line = 84:5]
  %41 = load i32* %40, align 4, !dbg !14192       ; [#uses=1 type=i32] [debug line = 84:5]
  %42 = call %"class.std::basic_ostream"* @_ZNSolsEi(%"class.std::basic_ostream"* %39, i32 %41), !dbg !14192 ; [#uses=1 type=%"class.std::basic_ostream"*] [debug line = 84:5]
  %43 = call %"class.std::basic_ostream"* @_ZNSolsEPFRSoS_E(%"class.std::basic_ostream"* %42, %"class.std::basic_ostream"* (%"class.std::basic_ostream"*)* @_ZSt4endlIcSt11char_traitsIcEERSt13basic_ostreamIT_T0_ES6_), !dbg !14192 ; [#uses=0 type=%"class.std::basic_ostream"*] [debug line = 84:5]
  %44 = load i32* %result, align 4, !dbg !14193   ; [#uses=1 type=i32] [debug line = 86:5]
  ret i32 %44, !dbg !14193                        ; [debug line = 86:5]
}

; [#uses=8]
define linkonce_odr %class.RubikCube* @_ZN9RubikCubeaSERKS_(%class.RubikCube* %this, %class.RubikCube*) nounwind uwtable inlinehint align 2 {
  %2 = alloca %class.RubikCube*, align 8          ; [#uses=2 type=%class.RubikCube**]
  %3 = alloca %class.RubikCube*, align 8          ; [#uses=2 type=%class.RubikCube**]
  store %class.RubikCube* %this, %class.RubikCube** %2, align 8
  call void @llvm.dbg.declare(metadata !{%class.RubikCube** %2}, metadata !14194), !dbg !14195 ; [debug line = 16:7] [debug variable = this]
  store %class.RubikCube* %0, %class.RubikCube** %3, align 8
  %4 = load %class.RubikCube** %2                 ; [#uses=2 type=%class.RubikCube*]
  %5 = bitcast %class.RubikCube* %4 to %class.Cube*, !dbg !14196 ; [#uses=1 type=%class.Cube*] [debug line = 16:7]
  %6 = load %class.RubikCube** %3, align 8, !dbg !14196 ; [#uses=1 type=%class.RubikCube*] [debug line = 16:7]
  %7 = bitcast %class.RubikCube* %6 to %class.Cube*, !dbg !14196 ; [#uses=1 type=%class.Cube*] [debug line = 16:7]
  %8 = call %class.Cube* @_ZN4CubeaSERKS_(%class.Cube* %5, %class.Cube* %7) nounwind, !dbg !14196 ; [#uses=0 type=%class.Cube*] [debug line = 16:7]
  ret %class.RubikCube* %4, !dbg !14196           ; [debug line = 16:7]
}

; [#uses=2]
define i32 @_ZN11RubikSolver10phase1CostEiii(%class.RubikSolver* %this, i32 %twist, i32 %flip, i32 %choice) nounwind uwtable align 2 {
  %1 = alloca %class.RubikSolver*, align 8        ; [#uses=2 type=%class.RubikSolver**]
  %2 = alloca i32, align 4                        ; [#uses=3 type=i32*]
  %3 = alloca i32, align 4                        ; [#uses=3 type=i32*]
  %4 = alloca i32, align 4                        ; [#uses=3 type=i32*]
  %cost = alloca i32, align 4                     ; [#uses=6 type=i32*]
  %cost2 = alloca i32, align 4                    ; [#uses=6 type=i32*]
  store %class.RubikSolver* %this, %class.RubikSolver** %1, align 8
  call void @llvm.dbg.declare(metadata !{%class.RubikSolver** %1}, metadata !14198), !dbg !14199 ; [debug line = 514:18] [debug variable = this]
  store i32 %twist, i32* %2, align 4
  call void @llvm.dbg.declare(metadata !{i32* %2}, metadata !14200), !dbg !14201 ; [debug line = 514:33] [debug variable = twist]
  store i32 %flip, i32* %3, align 4
  call void @llvm.dbg.declare(metadata !{i32* %3}, metadata !14202), !dbg !14203 ; [debug line = 514:44] [debug variable = flip]
  store i32 %choice, i32* %4, align 4
  call void @llvm.dbg.declare(metadata !{i32* %4}, metadata !14204), !dbg !14205 ; [debug line = 514:54] [debug variable = choice]
  %5 = load %class.RubikSolver** %1               ; [#uses=3 type=%class.RubikSolver*]
  call void @llvm.dbg.declare(metadata !{i32* %cost}, metadata !14206), !dbg !14208 ; [debug line = 515:9] [debug variable = cost]
  %6 = getelementptr inbounds %class.RubikSolver* %5, i32 0, i32 20, !dbg !14209 ; [#uses=1 type=%class.Table*] [debug line = 515:16]
  %7 = load i32* %2, align 4, !dbg !14209         ; [#uses=1 type=i32] [debug line = 515:16]
  %8 = mul nsw i32 %7, 2048, !dbg !14209          ; [#uses=1 type=i32] [debug line = 515:16]
  %9 = load i32* %3, align 4, !dbg !14209         ; [#uses=1 type=i32] [debug line = 515:16]
  %10 = add nsw i32 %8, %9, !dbg !14209           ; [#uses=1 type=i32] [debug line = 515:16]
  %11 = call i32 @_ZN5Table8getValueEi(%class.Table* %6, i32 %10), !dbg !14209 ; [#uses=1 type=i32] [debug line = 515:16]
  store i32 %11, i32* %cost, align 4, !dbg !14209 ; [debug line = 515:16]
  call void @llvm.dbg.declare(metadata !{i32* %cost2}, metadata !14210), !dbg !14211 ; [debug line = 516:9] [debug variable = cost2]
  %12 = getelementptr inbounds %class.RubikSolver* %5, i32 0, i32 21, !dbg !14212 ; [#uses=1 type=%class.Table*] [debug line = 516:17]
  %13 = load i32* %2, align 4, !dbg !14212        ; [#uses=1 type=i32] [debug line = 516:17]
  %14 = mul nsw i32 %13, 495, !dbg !14212         ; [#uses=1 type=i32] [debug line = 516:17]
  %15 = load i32* %4, align 4, !dbg !14212        ; [#uses=1 type=i32] [debug line = 516:17]
  %16 = add nsw i32 %14, %15, !dbg !14212         ; [#uses=1 type=i32] [debug line = 516:17]
  %17 = call i32 @_ZN5Table8getValueEi(%class.Table* %12, i32 %16), !dbg !14212 ; [#uses=1 type=i32] [debug line = 516:17]
  store i32 %17, i32* %cost2, align 4, !dbg !14212 ; [debug line = 516:17]
  %18 = load i32* %cost2, align 4, !dbg !14213    ; [#uses=1 type=i32] [debug line = 517:5]
  %19 = load i32* %cost, align 4, !dbg !14213     ; [#uses=1 type=i32] [debug line = 517:5]
  %20 = icmp sgt i32 %18, %19, !dbg !14213        ; [#uses=1 type=i1] [debug line = 517:5]
  br i1 %20, label %21, label %23, !dbg !14213    ; [debug line = 517:5]

; <label>:21                                      ; preds = %0
  %22 = load i32* %cost2, align 4, !dbg !14214    ; [#uses=1 type=i32] [debug line = 517:23]
  store i32 %22, i32* %cost, align 4, !dbg !14214 ; [debug line = 517:23]
  br label %23, !dbg !14214                       ; [debug line = 517:23]

; <label>:23                                      ; preds = %21, %0
  %24 = getelementptr inbounds %class.RubikSolver* %5, i32 0, i32 22, !dbg !14215 ; [#uses=1 type=%class.Table*] [debug line = 518:13]
  %25 = load i32* %3, align 4, !dbg !14215        ; [#uses=1 type=i32] [debug line = 518:13]
  %26 = mul nsw i32 %25, 495, !dbg !14215         ; [#uses=1 type=i32] [debug line = 518:13]
  %27 = load i32* %4, align 4, !dbg !14215        ; [#uses=1 type=i32] [debug line = 518:13]
  %28 = add nsw i32 %26, %27, !dbg !14215         ; [#uses=1 type=i32] [debug line = 518:13]
  %29 = call i32 @_ZN5Table8getValueEi(%class.Table* %24, i32 %28), !dbg !14215 ; [#uses=1 type=i32] [debug line = 518:13]
  store i32 %29, i32* %cost2, align 4, !dbg !14215 ; [debug line = 518:13]
  %30 = load i32* %cost2, align 4, !dbg !14216    ; [#uses=1 type=i32] [debug line = 519:5]
  %31 = load i32* %cost, align 4, !dbg !14216     ; [#uses=1 type=i32] [debug line = 519:5]
  %32 = icmp sgt i32 %30, %31, !dbg !14216        ; [#uses=1 type=i1] [debug line = 519:5]
  br i1 %32, label %33, label %35, !dbg !14216    ; [debug line = 519:5]

; <label>:33                                      ; preds = %23
  %34 = load i32* %cost2, align 4, !dbg !14217    ; [#uses=1 type=i32] [debug line = 519:23]
  store i32 %34, i32* %cost, align 4, !dbg !14217 ; [debug line = 519:23]
  br label %35, !dbg !14217                       ; [debug line = 519:23]

; <label>:35                                      ; preds = %33, %23
  %36 = load i32* %cost, align 4, !dbg !14218     ; [#uses=1 type=i32] [debug line = 520:5]
  ret i32 %36, !dbg !14218                        ; [debug line = 520:5]
}

; [#uses=1]
define i32 @_ZN11RubikSolver21iterativeSearchPhase1E9RubikCube(%class.RubikSolver* %this, %class.RubikCube* %rubiksCube) nounwind uwtable align 2 {
  %1 = alloca i32, align 4                        ; [#uses=5 type=i32*]
  %2 = alloca %class.RubikSolver*, align 8        ; [#uses=2 type=%class.RubikSolver**]
  %v = alloca i32, align 4                        ; [#uses=7 type=i32*]
  %depth = alloca i32, align 4                    ; [#uses=34 type=i32*]
  %3 = alloca %class.RubikCube, align 8           ; [#uses=3 type=%class.RubikCube*]
  %phase2Cube = alloca %class.RubikCube, align 8  ; [#uses=4 type=%class.RubikCube*]
  %i = alloca i32, align 4                        ; [#uses=6 type=i32*]
  %i1 = alloca i32, align 4                       ; [#uses=5 type=i32*]
  %4 = alloca i32                                 ; [#uses=1 type=i32*]
  store %class.RubikSolver* %this, %class.RubikSolver** %2, align 8
  call void @llvm.dbg.declare(metadata !{%class.RubikSolver** %2}, metadata !14219), !dbg !14220 ; [debug line = 89:18] [debug variable = this]
  call void @llvm.dbg.declare(metadata !{%class.RubikCube* %rubiksCube}, metadata !14221), !dbg !14222 ; [debug line = 89:50] [debug variable = rubiksCube]
  %5 = load %class.RubikSolver** %2               ; [#uses=35 type=%class.RubikSolver*]
  call void @llvm.dbg.declare(metadata !{i32* %v}, metadata !14223), !dbg !14225 ; [debug line = 91:9] [debug variable = v]
  store i32 0, i32* %v, align 4, !dbg !14226      ; [debug line = 91:22]
  call void @llvm.dbg.declare(metadata !{i32* %depth}, metadata !14227), !dbg !14228 ; [debug line = 92:9] [debug variable = depth]
  store i32 0, i32* %depth, align 4, !dbg !14229  ; [debug line = 92:18]
  br label %6, !dbg !14230                        ; [debug line = 93:5]

; <label>:6                                       ; preds = %232, %0
  %7 = load i32* %v, align 4, !dbg !14230         ; [#uses=1 type=i32] [debug line = 93:5]
  %8 = icmp eq i32 %7, 0, !dbg !14230             ; [#uses=1 type=i1] [debug line = 93:5]
  br i1 %8, label %12, label %9, !dbg !14230      ; [debug line = 93:5]

; <label>:9                                       ; preds = %6
  %10 = load i32* %v, align 4, !dbg !14230        ; [#uses=1 type=i32] [debug line = 93:5]
  %11 = icmp eq i32 %10, 4, !dbg !14230           ; [#uses=1 type=i1] [debug line = 93:5]
  br label %12, !dbg !14230                       ; [debug line = 93:5]

; <label>:12                                      ; preds = %9, %6
  %13 = phi i1 [ true, %6 ], [ %11, %9 ]          ; [#uses=1 type=i1]
  br i1 %13, label %14, label %233, !dbg !14230   ; [debug line = 93:5]

; <label>:14                                      ; preds = %12
  call void @_ZN9RubikCubeC1ERKS_(%class.RubikCube* %3, %class.RubikCube* %rubiksCube) nounwind, !dbg !14231 ; [debug line = 95:13]
  %15 = load i32* %depth, align 4, !dbg !14231    ; [#uses=1 type=i32] [debug line = 95:13]
  %16 = call i32 @_ZN11RubikSolver16generateChildrenE9RubikCubei(%class.RubikSolver* %5, %class.RubikCube* %3, i32 %15), !dbg !14231 ; [#uses=1 type=i32] [debug line = 95:13]
  store i32 %16, i32* %v, align 4, !dbg !14231    ; [debug line = 95:13]
  call void @_ZN9RubikCubeD1Ev(%class.RubikCube* %3), !dbg !14231 ; [debug line = 95:13]
  %17 = load i32* %v, align 4, !dbg !14233        ; [#uses=1 type=i32] [debug line = 96:9]
  %18 = icmp eq i32 %17, 4, !dbg !14233           ; [#uses=1 type=i1] [debug line = 96:9]
  br i1 %18, label %19, label %85, !dbg !14233    ; [debug line = 96:9]

; <label>:19                                      ; preds = %14
  %20 = load i32* %depth, align 4, !dbg !14234    ; [#uses=1 type=i32] [debug line = 97:13]
  %21 = add nsw i32 %20, -1, !dbg !14234          ; [#uses=1 type=i32] [debug line = 97:13]
  store i32 %21, i32* %depth, align 4, !dbg !14234 ; [debug line = 97:13]
  %22 = load i32* %depth, align 4, !dbg !14236    ; [#uses=1 type=i32] [debug line = 98:13]
  %23 = icmp slt i32 %22, 0, !dbg !14236          ; [#uses=1 type=i1] [debug line = 98:13]
  br i1 %23, label %24, label %25, !dbg !14236    ; [debug line = 98:13]

; <label>:24                                      ; preds = %19
  store i32 0, i32* %1, !dbg !14237               ; [debug line = 99:17]
  br label %233, !dbg !14237                      ; [debug line = 99:17]

; <label>:25                                      ; preds = %19
  br label %26, !dbg !14238                       ; [debug line = 100:13]

; <label>:26                                      ; preds = %45, %25
  %27 = load i32* %depth, align 4, !dbg !14238    ; [#uses=1 type=i32] [debug line = 100:13]
  %28 = sext i32 %27 to i64, !dbg !14238          ; [#uses=1 type=i64] [debug line = 100:13]
  %29 = getelementptr inbounds %class.RubikSolver* %5, i32 0, i32 6, !dbg !14238 ; [#uses=1 type=[32 x i32]*] [debug line = 100:13]
  %30 = getelementptr inbounds [32 x i32]* %29, i32 0, i64 %28, !dbg !14238 ; [#uses=1 type=i32*] [debug line = 100:13]
  %31 = load i32* %30, align 4, !dbg !14238       ; [#uses=1 type=i32] [debug line = 100:13]
  %32 = add nsw i32 %31, 1, !dbg !14238           ; [#uses=1 type=i32] [debug line = 100:13]
  %33 = load i32* %depth, align 4, !dbg !14238    ; [#uses=1 type=i32] [debug line = 100:13]
  %34 = sext i32 %33 to i64, !dbg !14238          ; [#uses=1 type=i64] [debug line = 100:13]
  %35 = getelementptr inbounds %class.RubikSolver* %5, i32 0, i32 12, !dbg !14238 ; [#uses=1 type=[32 x i32]*] [debug line = 100:13]
  %36 = getelementptr inbounds [32 x i32]* %35, i32 0, i64 %34, !dbg !14238 ; [#uses=1 type=i32*] [debug line = 100:13]
  %37 = load i32* %36, align 4, !dbg !14238       ; [#uses=1 type=i32] [debug line = 100:13]
  %38 = icmp sge i32 %32, %37, !dbg !14238        ; [#uses=1 type=i1] [debug line = 100:13]
  br i1 %38, label %39, label %46, !dbg !14238    ; [debug line = 100:13]

; <label>:39                                      ; preds = %26
  %40 = load i32* %depth, align 4, !dbg !14239    ; [#uses=1 type=i32] [debug line = 103:17]
  %41 = add nsw i32 %40, -1, !dbg !14239          ; [#uses=1 type=i32] [debug line = 103:17]
  store i32 %41, i32* %depth, align 4, !dbg !14239 ; [debug line = 103:17]
  %42 = load i32* %depth, align 4, !dbg !14241    ; [#uses=1 type=i32] [debug line = 104:17]
  %43 = icmp slt i32 %42, 0, !dbg !14241          ; [#uses=1 type=i1] [debug line = 104:17]
  br i1 %43, label %44, label %45, !dbg !14241    ; [debug line = 104:17]

; <label>:44                                      ; preds = %39
  store i32 0, i32* %1, !dbg !14242               ; [debug line = 105:21]
  br label %233, !dbg !14242                      ; [debug line = 105:21]

; <label>:45                                      ; preds = %39
  br label %26, !dbg !14243                       ; [debug line = 106:13]

; <label>:46                                      ; preds = %26
  %47 = load i32* %depth, align 4, !dbg !14244    ; [#uses=1 type=i32] [debug line = 107:13]
  %48 = icmp slt i32 %47, 0, !dbg !14244          ; [#uses=1 type=i1] [debug line = 107:13]
  br i1 %48, label %49, label %50, !dbg !14244    ; [debug line = 107:13]

; <label>:49                                      ; preds = %46
  store i32 0, i32* %1, !dbg !14245               ; [debug line = 108:17]
  br label %233, !dbg !14245                      ; [debug line = 108:17]

; <label>:50                                      ; preds = %46
  %51 = load i32* %depth, align 4, !dbg !14246    ; [#uses=1 type=i32] [debug line = 110:13]
  %52 = sext i32 %51 to i64, !dbg !14246          ; [#uses=1 type=i64] [debug line = 110:13]
  %53 = getelementptr inbounds %class.RubikSolver* %5, i32 0, i32 6, !dbg !14246 ; [#uses=1 type=[32 x i32]*] [debug line = 110:13]
  %54 = getelementptr inbounds [32 x i32]* %53, i32 0, i64 %52, !dbg !14246 ; [#uses=1 type=i32*] [debug line = 110:13]
  %55 = load i32* %54, align 4, !dbg !14246       ; [#uses=1 type=i32] [debug line = 110:13]
  %56 = add nsw i32 %55, 1, !dbg !14246           ; [#uses=1 type=i32] [debug line = 110:13]
  %57 = load i32* %depth, align 4, !dbg !14246    ; [#uses=1 type=i32] [debug line = 110:13]
  %58 = sext i32 %57 to i64, !dbg !14246          ; [#uses=1 type=i64] [debug line = 110:13]
  %59 = getelementptr inbounds %class.RubikSolver* %5, i32 0, i32 6, !dbg !14246 ; [#uses=1 type=[32 x i32]*] [debug line = 110:13]
  %60 = getelementptr inbounds [32 x i32]* %59, i32 0, i64 %58, !dbg !14246 ; [#uses=1 type=i32*] [debug line = 110:13]
  store i32 %56, i32* %60, align 4, !dbg !14246   ; [debug line = 110:13]
  %61 = load i32* %depth, align 4, !dbg !14247    ; [#uses=1 type=i32] [debug line = 111:13]
  %62 = sext i32 %61 to i64, !dbg !14247          ; [#uses=1 type=i64] [debug line = 111:13]
  %63 = getelementptr inbounds %class.RubikSolver* %5, i32 0, i32 6, !dbg !14247 ; [#uses=1 type=[32 x i32]*] [debug line = 111:13]
  %64 = getelementptr inbounds [32 x i32]* %63, i32 0, i64 %62, !dbg !14247 ; [#uses=1 type=i32*] [debug line = 111:13]
  %65 = load i32* %64, align 4, !dbg !14247       ; [#uses=1 type=i32] [debug line = 111:13]
  %66 = sext i32 %65 to i64, !dbg !14247          ; [#uses=1 type=i64] [debug line = 111:13]
  %67 = getelementptr inbounds %class.RubikSolver* %5, i32 0, i32 10, !dbg !14247 ; [#uses=1 type=[576 x i32]*] [debug line = 111:13]
  %68 = getelementptr inbounds [576 x i32]* %67, i32 0, i64 %66, !dbg !14247 ; [#uses=1 type=i32*] [debug line = 111:13]
  %69 = load i32* %68, align 4, !dbg !14247       ; [#uses=1 type=i32] [debug line = 111:13]
  %70 = load i32* %depth, align 4, !dbg !14247    ; [#uses=1 type=i32] [debug line = 111:13]
  %71 = sext i32 %70 to i64, !dbg !14247          ; [#uses=1 type=i64] [debug line = 111:13]
  %72 = getelementptr inbounds %class.RubikSolver* %5, i32 0, i32 14, !dbg !14247 ; [#uses=1 type=[32 x i32]*] [debug line = 111:13]
  %73 = getelementptr inbounds [32 x i32]* %72, i32 0, i64 %71, !dbg !14247 ; [#uses=1 type=i32*] [debug line = 111:13]
  store i32 %69, i32* %73, align 4, !dbg !14247   ; [debug line = 111:13]
  %74 = load i32* %depth, align 4, !dbg !14248    ; [#uses=1 type=i32] [debug line = 112:13]
  %75 = sext i32 %74 to i64, !dbg !14248          ; [#uses=1 type=i64] [debug line = 112:13]
  %76 = getelementptr inbounds %class.RubikSolver* %5, i32 0, i32 6, !dbg !14248 ; [#uses=1 type=[32 x i32]*] [debug line = 112:13]
  %77 = getelementptr inbounds [32 x i32]* %76, i32 0, i64 %75, !dbg !14248 ; [#uses=1 type=i32*] [debug line = 112:13]
  %78 = load i32* %77, align 4, !dbg !14248       ; [#uses=1 type=i32] [debug line = 112:13]
  %79 = sext i32 %78 to i64, !dbg !14248          ; [#uses=1 type=i64] [debug line = 112:13]
  %80 = getelementptr inbounds %class.RubikSolver* %5, i32 0, i32 8, !dbg !14248 ; [#uses=1 type=[576 x %class.RubikCube]*] [debug line = 112:13]
  %81 = getelementptr inbounds [576 x %class.RubikCube]* %80, i32 0, i64 %79, !dbg !14248 ; [#uses=1 type=%class.RubikCube*] [debug line = 112:13]
  %82 = call %class.RubikCube* @_ZN9RubikCubeaSERKS_(%class.RubikCube* %rubiksCube, %class.RubikCube* %81) nounwind, !dbg !14248 ; [#uses=0 type=%class.RubikCube*] [debug line = 112:13]
  %83 = load i32* %depth, align 4, !dbg !14249    ; [#uses=1 type=i32] [debug line = 113:13]
  %84 = add nsw i32 %83, 1, !dbg !14249           ; [#uses=1 type=i32] [debug line = 113:13]
  store i32 %84, i32* %depth, align 4, !dbg !14249 ; [debug line = 113:13]
  br label %232, !dbg !14250                      ; [debug line = 114:9]

; <label>:85                                      ; preds = %14
  %86 = load i32* %v, align 4, !dbg !14251        ; [#uses=1 type=i32] [debug line = 115:14]
  %87 = icmp eq i32 %86, 0, !dbg !14251           ; [#uses=1 type=i1] [debug line = 115:14]
  br i1 %87, label %88, label %148, !dbg !14251   ; [debug line = 115:14]

; <label>:88                                      ; preds = %85
  %89 = load i32* %depth, align 4, !dbg !14252    ; [#uses=1 type=i32] [debug line = 116:13]
  %90 = icmp eq i32 %89, 0, !dbg !14252           ; [#uses=1 type=i1] [debug line = 116:13]
  br i1 %90, label %91, label %109, !dbg !14252   ; [debug line = 116:13]

; <label>:91                                      ; preds = %88
  %92 = load i32* %depth, align 4, !dbg !14254    ; [#uses=1 type=i32] [debug line = 117:17]
  %93 = sext i32 %92 to i64, !dbg !14254          ; [#uses=1 type=i64] [debug line = 117:17]
  %94 = getelementptr inbounds %class.RubikSolver* %5, i32 0, i32 6, !dbg !14254 ; [#uses=1 type=[32 x i32]*] [debug line = 117:17]
  %95 = getelementptr inbounds [32 x i32]* %94, i32 0, i64 %93, !dbg !14254 ; [#uses=1 type=i32*] [debug line = 117:17]
  store i32 0, i32* %95, align 4, !dbg !14254     ; [debug line = 117:17]
  %96 = load i32* %depth, align 4, !dbg !14256    ; [#uses=1 type=i32] [debug line = 118:17]
  %97 = sext i32 %96 to i64, !dbg !14256          ; [#uses=1 type=i64] [debug line = 118:17]
  %98 = getelementptr inbounds %class.RubikSolver* %5, i32 0, i32 6, !dbg !14256 ; [#uses=1 type=[32 x i32]*] [debug line = 118:17]
  %99 = getelementptr inbounds [32 x i32]* %98, i32 0, i64 %97, !dbg !14256 ; [#uses=1 type=i32*] [debug line = 118:17]
  %100 = load i32* %99, align 4, !dbg !14256      ; [#uses=1 type=i32] [debug line = 118:17]
  %101 = sext i32 %100 to i64, !dbg !14256        ; [#uses=1 type=i64] [debug line = 118:17]
  %102 = getelementptr inbounds %class.RubikSolver* %5, i32 0, i32 10, !dbg !14256 ; [#uses=1 type=[576 x i32]*] [debug line = 118:17]
  %103 = getelementptr inbounds [576 x i32]* %102, i32 0, i64 %101, !dbg !14256 ; [#uses=1 type=i32*] [debug line = 118:17]
  %104 = load i32* %103, align 4, !dbg !14256     ; [#uses=1 type=i32] [debug line = 118:17]
  %105 = load i32* %depth, align 4, !dbg !14256   ; [#uses=1 type=i32] [debug line = 118:17]
  %106 = sext i32 %105 to i64, !dbg !14256        ; [#uses=1 type=i64] [debug line = 118:17]
  %107 = getelementptr inbounds %class.RubikSolver* %5, i32 0, i32 14, !dbg !14256 ; [#uses=1 type=[32 x i32]*] [debug line = 118:17]
  %108 = getelementptr inbounds [32 x i32]* %107, i32 0, i64 %106, !dbg !14256 ; [#uses=1 type=i32*] [debug line = 118:17]
  store i32 %104, i32* %108, align 4, !dbg !14256 ; [debug line = 118:17]
  br label %133, !dbg !14257                      ; [debug line = 119:13]

; <label>:109                                     ; preds = %88
  %110 = load i32* %depth, align 4, !dbg !14258   ; [#uses=1 type=i32] [debug line = 121:17]
  %111 = sub nsw i32 %110, 1, !dbg !14258         ; [#uses=1 type=i32] [debug line = 121:17]
  %112 = sext i32 %111 to i64, !dbg !14258        ; [#uses=1 type=i64] [debug line = 121:17]
  %113 = getelementptr inbounds %class.RubikSolver* %5, i32 0, i32 12, !dbg !14258 ; [#uses=1 type=[32 x i32]*] [debug line = 121:17]
  %114 = getelementptr inbounds [32 x i32]* %113, i32 0, i64 %112, !dbg !14258 ; [#uses=1 type=i32*] [debug line = 121:17]
  %115 = load i32* %114, align 4, !dbg !14258     ; [#uses=1 type=i32] [debug line = 121:17]
  %116 = load i32* %depth, align 4, !dbg !14258   ; [#uses=1 type=i32] [debug line = 121:17]
  %117 = sext i32 %116 to i64, !dbg !14258        ; [#uses=1 type=i64] [debug line = 121:17]
  %118 = getelementptr inbounds %class.RubikSolver* %5, i32 0, i32 6, !dbg !14258 ; [#uses=1 type=[32 x i32]*] [debug line = 121:17]
  %119 = getelementptr inbounds [32 x i32]* %118, i32 0, i64 %117, !dbg !14258 ; [#uses=1 type=i32*] [debug line = 121:17]
  store i32 %115, i32* %119, align 4, !dbg !14258 ; [debug line = 121:17]
  %120 = load i32* %depth, align 4, !dbg !14260   ; [#uses=1 type=i32] [debug line = 122:17]
  %121 = sext i32 %120 to i64, !dbg !14260        ; [#uses=1 type=i64] [debug line = 122:17]
  %122 = getelementptr inbounds %class.RubikSolver* %5, i32 0, i32 6, !dbg !14260 ; [#uses=1 type=[32 x i32]*] [debug line = 122:17]
  %123 = getelementptr inbounds [32 x i32]* %122, i32 0, i64 %121, !dbg !14260 ; [#uses=1 type=i32*] [debug line = 122:17]
  %124 = load i32* %123, align 4, !dbg !14260     ; [#uses=1 type=i32] [debug line = 122:17]
  %125 = sext i32 %124 to i64, !dbg !14260        ; [#uses=1 type=i64] [debug line = 122:17]
  %126 = getelementptr inbounds %class.RubikSolver* %5, i32 0, i32 10, !dbg !14260 ; [#uses=1 type=[576 x i32]*] [debug line = 122:17]
  %127 = getelementptr inbounds [576 x i32]* %126, i32 0, i64 %125, !dbg !14260 ; [#uses=1 type=i32*] [debug line = 122:17]
  %128 = load i32* %127, align 4, !dbg !14260     ; [#uses=1 type=i32] [debug line = 122:17]
  %129 = load i32* %depth, align 4, !dbg !14260   ; [#uses=1 type=i32] [debug line = 122:17]
  %130 = sext i32 %129 to i64, !dbg !14260        ; [#uses=1 type=i64] [debug line = 122:17]
  %131 = getelementptr inbounds %class.RubikSolver* %5, i32 0, i32 14, !dbg !14260 ; [#uses=1 type=[32 x i32]*] [debug line = 122:17]
  %132 = getelementptr inbounds [32 x i32]* %131, i32 0, i64 %130, !dbg !14260 ; [#uses=1 type=i32*] [debug line = 122:17]
  store i32 %128, i32* %132, align 4, !dbg !14260 ; [debug line = 122:17]
  br label %133

; <label>:133                                     ; preds = %109, %91
  %134 = load i32* %depth, align 4, !dbg !14261   ; [#uses=1 type=i32] [debug line = 124:13]
  %135 = sext i32 %134 to i64, !dbg !14261        ; [#uses=1 type=i64] [debug line = 124:13]
  %136 = getelementptr inbounds %class.RubikSolver* %5, i32 0, i32 6, !dbg !14261 ; [#uses=1 type=[32 x i32]*] [debug line = 124:13]
  %137 = getelementptr inbounds [32 x i32]* %136, i32 0, i64 %135, !dbg !14261 ; [#uses=1 type=i32*] [debug line = 124:13]
  %138 = load i32* %137, align 4, !dbg !14261     ; [#uses=1 type=i32] [debug line = 124:13]
  %139 = sext i32 %138 to i64, !dbg !14261        ; [#uses=1 type=i64] [debug line = 124:13]
  %140 = getelementptr inbounds %class.RubikSolver* %5, i32 0, i32 8, !dbg !14261 ; [#uses=1 type=[576 x %class.RubikCube]*] [debug line = 124:13]
  %141 = getelementptr inbounds [576 x %class.RubikCube]* %140, i32 0, i64 %139, !dbg !14261 ; [#uses=1 type=%class.RubikCube*] [debug line = 124:13]
  %142 = call %class.RubikCube* @_ZN9RubikCubeaSERKS_(%class.RubikCube* %rubiksCube, %class.RubikCube* %141) nounwind, !dbg !14261 ; [#uses=0 type=%class.RubikCube*] [debug line = 124:13]
  %143 = getelementptr inbounds %class.RubikSolver* %5, i32 0, i32 0, !dbg !14262 ; [#uses=2 type=i32*] [debug line = 125:13]
  %144 = load i32* %143, align 4, !dbg !14262     ; [#uses=1 type=i32] [debug line = 125:13]
  %145 = add nsw i32 %144, 1, !dbg !14262         ; [#uses=1 type=i32] [debug line = 125:13]
  store i32 %145, i32* %143, align 4, !dbg !14262 ; [debug line = 125:13]
  %146 = load i32* %depth, align 4, !dbg !14263   ; [#uses=1 type=i32] [debug line = 126:13]
  %147 = add nsw i32 %146, 1, !dbg !14263         ; [#uses=1 type=i32] [debug line = 126:13]
  store i32 %147, i32* %depth, align 4, !dbg !14263 ; [debug line = 126:13]
  br label %231, !dbg !14264                      ; [debug line = 127:9]

; <label>:148                                     ; preds = %85
  %149 = load i32* %v, align 4, !dbg !14265       ; [#uses=1 type=i32] [debug line = 128:14]
  %150 = icmp eq i32 %149, 1, !dbg !14265         ; [#uses=1 type=i1] [debug line = 128:14]
  br i1 %150, label %151, label %230, !dbg !14265 ; [debug line = 128:14]

; <label>:151                                     ; preds = %148
  %152 = load i32* %depth, align 4, !dbg !14266   ; [#uses=1 type=i32] [debug line = 129:13]
  %153 = sext i32 %152 to i64, !dbg !14266        ; [#uses=1 type=i64] [debug line = 129:13]
  %154 = getelementptr inbounds %class.RubikSolver* %5, i32 0, i32 12, !dbg !14266 ; [#uses=1 type=[32 x i32]*] [debug line = 129:13]
  %155 = getelementptr inbounds [32 x i32]* %154, i32 0, i64 %153, !dbg !14266 ; [#uses=1 type=i32*] [debug line = 129:13]
  %156 = load i32* %155, align 4, !dbg !14266     ; [#uses=1 type=i32] [debug line = 129:13]
  %157 = sub nsw i32 %156, 1, !dbg !14266         ; [#uses=1 type=i32] [debug line = 129:13]
  %158 = load i32* %depth, align 4, !dbg !14266   ; [#uses=1 type=i32] [debug line = 129:13]
  %159 = sext i32 %158 to i64, !dbg !14266        ; [#uses=1 type=i64] [debug line = 129:13]
  %160 = getelementptr inbounds %class.RubikSolver* %5, i32 0, i32 6, !dbg !14266 ; [#uses=1 type=[32 x i32]*] [debug line = 129:13]
  %161 = getelementptr inbounds [32 x i32]* %160, i32 0, i64 %159, !dbg !14266 ; [#uses=1 type=i32*] [debug line = 129:13]
  store i32 %157, i32* %161, align 4, !dbg !14266 ; [debug line = 129:13]
  %162 = load i32* %depth, align 4, !dbg !14268   ; [#uses=1 type=i32] [debug line = 130:13]
  %163 = sext i32 %162 to i64, !dbg !14268        ; [#uses=1 type=i64] [debug line = 130:13]
  %164 = getelementptr inbounds %class.RubikSolver* %5, i32 0, i32 6, !dbg !14268 ; [#uses=1 type=[32 x i32]*] [debug line = 130:13]
  %165 = getelementptr inbounds [32 x i32]* %164, i32 0, i64 %163, !dbg !14268 ; [#uses=1 type=i32*] [debug line = 130:13]
  %166 = load i32* %165, align 4, !dbg !14268     ; [#uses=1 type=i32] [debug line = 130:13]
  %167 = sext i32 %166 to i64, !dbg !14268        ; [#uses=1 type=i64] [debug line = 130:13]
  %168 = getelementptr inbounds %class.RubikSolver* %5, i32 0, i32 10, !dbg !14268 ; [#uses=1 type=[576 x i32]*] [debug line = 130:13]
  %169 = getelementptr inbounds [576 x i32]* %168, i32 0, i64 %167, !dbg !14268 ; [#uses=1 type=i32*] [debug line = 130:13]
  %170 = load i32* %169, align 4, !dbg !14268     ; [#uses=1 type=i32] [debug line = 130:13]
  %171 = load i32* %depth, align 4, !dbg !14268   ; [#uses=1 type=i32] [debug line = 130:13]
  %172 = sext i32 %171 to i64, !dbg !14268        ; [#uses=1 type=i64] [debug line = 130:13]
  %173 = getelementptr inbounds %class.RubikSolver* %5, i32 0, i32 14, !dbg !14268 ; [#uses=1 type=[32 x i32]*] [debug line = 130:13]
  %174 = getelementptr inbounds [32 x i32]* %173, i32 0, i64 %172, !dbg !14268 ; [#uses=1 type=i32*] [debug line = 130:13]
  store i32 %170, i32* %174, align 4, !dbg !14268 ; [debug line = 130:13]
  %175 = load i32* %depth, align 4, !dbg !14269   ; [#uses=1 type=i32] [debug line = 131:13]
  %176 = add nsw i32 %175, 1, !dbg !14269         ; [#uses=1 type=i32] [debug line = 131:13]
  %177 = getelementptr inbounds %class.RubikSolver* %5, i32 0, i32 16, !dbg !14269 ; [#uses=1 type=i32*] [debug line = 131:13]
  store i32 %176, i32* %177, align 4, !dbg !14269 ; [debug line = 131:13]
  call void @llvm.dbg.declare(metadata !{%class.RubikCube* %phase2Cube}, metadata !14270), !dbg !14271 ; [debug line = 133:23] [debug variable = phase2Cube]
  %178 = getelementptr inbounds %class.RubikSolver* %5, i32 0, i32 19, !dbg !14272 ; [#uses=1 type=%class.RubikCube*] [debug line = 133:40]
  call void @_ZN9RubikCubeC1ERKS_(%class.RubikCube* %phase2Cube, %class.RubikCube* %178) nounwind, !dbg !14272 ; [debug line = 133:40]
  %179 = call %"class.std::basic_ostream"* @_ZStlsISt11char_traitsIcEERSt13basic_ostreamIcT_ES5_PKc(%"class.std::basic_ostream"* @_ZSt4cout, i8* getelementptr inbounds ([8 x i8]* @.str1418, i32 0, i32 0)), !dbg !14273 ; [#uses=1 type=%"class.std::basic_ostream"*] [debug line = 134:13]
  %180 = call %"class.std::basic_ostream"* @_ZNSolsEPFRSoS_E(%"class.std::basic_ostream"* %179, %"class.std::basic_ostream"* (%"class.std::basic_ostream"*)* @_ZSt4endlIcSt11char_traitsIcEERSt13basic_ostreamIT_T0_ES6_), !dbg !14273 ; [#uses=0 type=%"class.std::basic_ostream"*] [debug line = 134:13]
  call void @llvm.dbg.declare(metadata !{i32* %i}, metadata !14274), !dbg !14276 ; [debug line = 135:22] [debug variable = i]
  store i32 0, i32* %i, align 4, !dbg !14277      ; [debug line = 135:27]
  br label %181, !dbg !14277                      ; [debug line = 135:27]

; <label>:181                                     ; preds = %204, %151
  %182 = load i32* %i, align 4, !dbg !14277       ; [#uses=1 type=i32] [debug line = 135:27]
  %183 = getelementptr inbounds %class.RubikSolver* %5, i32 0, i32 16, !dbg !14277 ; [#uses=1 type=i32*] [debug line = 135:27]
  %184 = load i32* %183, align 4, !dbg !14277     ; [#uses=1 type=i32] [debug line = 135:27]
  %185 = icmp slt i32 %182, %184, !dbg !14277     ; [#uses=1 type=i1] [debug line = 135:27]
  br i1 %185, label %186, label %207, !dbg !14277 ; [debug line = 135:27]

; <label>:186                                     ; preds = %181
  %187 = load i32* %i, align 4, !dbg !14278       ; [#uses=1 type=i32] [debug line = 136:17]
  %188 = sext i32 %187 to i64, !dbg !14278        ; [#uses=1 type=i64] [debug line = 136:17]
  %189 = getelementptr inbounds %class.RubikSolver* %5, i32 0, i32 14, !dbg !14278 ; [#uses=1 type=[32 x i32]*] [debug line = 136:17]
  %190 = getelementptr inbounds [32 x i32]* %189, i32 0, i64 %188, !dbg !14278 ; [#uses=1 type=i32*] [debug line = 136:17]
  %191 = load i32* %190, align 4, !dbg !14278     ; [#uses=1 type=i32] [debug line = 136:17]
  %192 = call %"class.std::basic_ostream"* @_ZNSolsEi(%"class.std::basic_ostream"* @_ZSt4cout, i32 %191), !dbg !14278 ; [#uses=1 type=%"class.std::basic_ostream"*] [debug line = 136:17]
  %193 = call %"class.std::basic_ostream"* @_ZStlsISt11char_traitsIcEERSt13basic_ostreamIcT_ES5_PKc(%"class.std::basic_ostream"* %192, i8* getelementptr inbounds ([2 x i8]* @.str15, i32 0, i32 0)), !dbg !14278 ; [#uses=0 type=%"class.std::basic_ostream"*] [debug line = 136:17]
  %194 = bitcast %class.RubikCube* %phase2Cube to %class.Cube*, !dbg !14280 ; [#uses=2 type=%class.Cube*] [debug line = 137:17]
  %195 = bitcast %class.Cube* %194 to void (%class.Cube*, i32)***, !dbg !14280 ; [#uses=1 type=void (%class.Cube*, i32)***] [debug line = 137:17]
  %196 = load void (%class.Cube*, i32)*** %195, !dbg !14280 ; [#uses=1 type=void (%class.Cube*, i32)**] [debug line = 137:17]
  %197 = getelementptr inbounds void (%class.Cube*, i32)** %196, i64 4, !dbg !14280 ; [#uses=1 type=void (%class.Cube*, i32)**] [debug line = 137:17]
  %198 = load void (%class.Cube*, i32)** %197, !dbg !14280 ; [#uses=1 type=void (%class.Cube*, i32)*] [debug line = 137:17]
  %199 = load i32* %i, align 4, !dbg !14280       ; [#uses=1 type=i32] [debug line = 137:17]
  %200 = sext i32 %199 to i64, !dbg !14280        ; [#uses=1 type=i64] [debug line = 137:17]
  %201 = getelementptr inbounds %class.RubikSolver* %5, i32 0, i32 14, !dbg !14280 ; [#uses=1 type=[32 x i32]*] [debug line = 137:17]
  %202 = getelementptr inbounds [32 x i32]* %201, i32 0, i64 %200, !dbg !14280 ; [#uses=1 type=i32*] [debug line = 137:17]
  %203 = load i32* %202, align 4, !dbg !14280     ; [#uses=1 type=i32] [debug line = 137:17]
  call void %198(%class.Cube* %194, i32 %203), !dbg !14280 ; [debug line = 137:17]
  br label %204, !dbg !14281                      ; [debug line = 138:13]

; <label>:204                                     ; preds = %186
  %205 = load i32* %i, align 4, !dbg !14282       ; [#uses=1 type=i32] [debug line = 135:50]
  %206 = add nsw i32 %205, 1, !dbg !14282         ; [#uses=1 type=i32] [debug line = 135:50]
  store i32 %206, i32* %i, align 4, !dbg !14282   ; [debug line = 135:50]
  br label %181, !dbg !14282                      ; [debug line = 135:50]

; <label>:207                                     ; preds = %181
  %208 = call %"class.std::basic_ostream"* @_ZNSolsEPFRSoS_E(%"class.std::basic_ostream"* @_ZSt4cout, %"class.std::basic_ostream"* (%"class.std::basic_ostream"*)* @_ZSt4endlIcSt11char_traitsIcEERSt13basic_ostreamIT_T0_ES6_), !dbg !14283 ; [#uses=0 type=%"class.std::basic_ostream"*] [debug line = 139:13]
  %209 = call i32 @_ZN11RubikSolver6solve2ER9RubikCube(%class.RubikSolver* %5, %class.RubikCube* %phase2Cube), !dbg !14284 ; [#uses=0 type=i32] [debug line = 141:13]
  %210 = call %"class.std::basic_ostream"* @_ZStlsISt11char_traitsIcEERSt13basic_ostreamIcT_ES5_PKc(%"class.std::basic_ostream"* @_ZSt4cout, i8* getelementptr inbounds ([8 x i8]* @.str16, i32 0, i32 0)), !dbg !14285 ; [#uses=1 type=%"class.std::basic_ostream"*] [debug line = 142:13]
  %211 = call %"class.std::basic_ostream"* @_ZNSolsEPFRSoS_E(%"class.std::basic_ostream"* %210, %"class.std::basic_ostream"* (%"class.std::basic_ostream"*)* @_ZSt4endlIcSt11char_traitsIcEERSt13basic_ostreamIT_T0_ES6_), !dbg !14285 ; [#uses=0 type=%"class.std::basic_ostream"*] [debug line = 142:13]
  call void @llvm.dbg.declare(metadata !{i32* %i1}, metadata !14286), !dbg !14288 ; [debug line = 143:22] [debug variable = i]
  store i32 0, i32* %i1, align 4, !dbg !14289     ; [debug line = 143:25]
  br label %212, !dbg !14289                      ; [debug line = 143:25]

; <label>:212                                     ; preds = %225, %207
  %213 = load i32* %i1, align 4, !dbg !14289      ; [#uses=1 type=i32] [debug line = 143:25]
  %214 = getelementptr inbounds %class.RubikSolver* %5, i32 0, i32 17, !dbg !14289 ; [#uses=1 type=i32*] [debug line = 143:25]
  %215 = load i32* %214, align 4, !dbg !14289     ; [#uses=1 type=i32] [debug line = 143:25]
  %216 = icmp slt i32 %213, %215, !dbg !14289     ; [#uses=1 type=i1] [debug line = 143:25]
  br i1 %216, label %217, label %228, !dbg !14289 ; [debug line = 143:25]

; <label>:217                                     ; preds = %212
  %218 = load i32* %i1, align 4, !dbg !14290      ; [#uses=1 type=i32] [debug line = 145:17]
  %219 = sext i32 %218 to i64, !dbg !14290        ; [#uses=1 type=i64] [debug line = 145:17]
  %220 = getelementptr inbounds %class.RubikSolver* %5, i32 0, i32 15, !dbg !14290 ; [#uses=1 type=[32 x i32]*] [debug line = 145:17]
  %221 = getelementptr inbounds [32 x i32]* %220, i32 0, i64 %219, !dbg !14290 ; [#uses=1 type=i32*] [debug line = 145:17]
  %222 = load i32* %221, align 4, !dbg !14290     ; [#uses=1 type=i32] [debug line = 145:17]
  %223 = call %"class.std::basic_ostream"* @_ZNSolsEi(%"class.std::basic_ostream"* @_ZSt4cout, i32 %222), !dbg !14290 ; [#uses=1 type=%"class.std::basic_ostream"*] [debug line = 145:17]
  %224 = call %"class.std::basic_ostream"* @_ZStlsISt11char_traitsIcEERSt13basic_ostreamIcT_ES5_PKc(%"class.std::basic_ostream"* %223, i8* getelementptr inbounds ([2 x i8]* @.str15, i32 0, i32 0)), !dbg !14290 ; [#uses=0 type=%"class.std::basic_ostream"*] [debug line = 145:17]
  br label %225, !dbg !14292                      ; [debug line = 146:13]

; <label>:225                                     ; preds = %217
  %226 = load i32* %i1, align 4, !dbg !14293      ; [#uses=1 type=i32] [debug line = 143:44]
  %227 = add nsw i32 %226, 1, !dbg !14293         ; [#uses=1 type=i32] [debug line = 143:44]
  store i32 %227, i32* %i1, align 4, !dbg !14293  ; [debug line = 143:44]
  br label %212, !dbg !14293                      ; [debug line = 143:44]

; <label>:228                                     ; preds = %212
  %229 = call %"class.std::basic_ostream"* @_ZNSolsEPFRSoS_E(%"class.std::basic_ostream"* @_ZSt4cout, %"class.std::basic_ostream"* (%"class.std::basic_ostream"*)* @_ZSt4endlIcSt11char_traitsIcEERSt13basic_ostreamIT_T0_ES6_), !dbg !14294 ; [#uses=0 type=%"class.std::basic_ostream"*] [debug line = 147:13]
  store i32 1, i32* %1, !dbg !14295               ; [debug line = 148:13]
  store i32 1, i32* %4
  call void @_ZN9RubikCubeD1Ev(%class.RubikCube* %phase2Cube), !dbg !14296 ; [debug line = 149:9]
  br label %233

; <label>:230                                     ; preds = %148
  br label %231

; <label>:231                                     ; preds = %230, %133
  br label %232

; <label>:232                                     ; preds = %231, %50
  br label %6, !dbg !14297                        ; [debug line = 150:5]

; <label>:233                                     ; preds = %228, %49, %44, %24, %12
  %234 = load i32* %1, !dbg !14298                ; [#uses=1 type=i32] [debug line = 151:1]
  ret i32 %234, !dbg !14298                       ; [debug line = 151:1]
}

; [#uses=7]
define linkonce_odr void @_ZN9RubikCubeC1ERKS_(%class.RubikCube* %this, %class.RubikCube*) unnamed_addr nounwind uwtable inlinehint align 2 {
  %2 = alloca %class.RubikCube*, align 8          ; [#uses=2 type=%class.RubikCube**]
  %3 = alloca %class.RubikCube*, align 8          ; [#uses=2 type=%class.RubikCube**]
  store %class.RubikCube* %this, %class.RubikCube** %2, align 8
  call void @llvm.dbg.declare(metadata !{%class.RubikCube** %2}, metadata !14299), !dbg !14300 ; [debug line = 16:7] [debug variable = this]
  store %class.RubikCube* %0, %class.RubikCube** %3, align 8
  %4 = load %class.RubikCube** %2                 ; [#uses=1 type=%class.RubikCube*]
  %5 = load %class.RubikCube** %3, !dbg !14300    ; [#uses=1 type=%class.RubikCube*] [debug line = 16:7]
  call void @_ZN9RubikCubeC2ERKS_(%class.RubikCube* %4, %class.RubikCube* %5) nounwind, !dbg !14300 ; [debug line = 16:7]
  ret void, !dbg !14300                           ; [debug line = 16:7]
}

; [#uses=1]
define i32 @_ZN11RubikSolver16generateChildrenE9RubikCubei(%class.RubikSolver* %this, %class.RubikCube* %rubiksCube, i32 %depth) nounwind uwtable align 2 {
  %1 = alloca i32, align 4                        ; [#uses=4 type=i32*]
  %2 = alloca %class.RubikSolver*, align 8        ; [#uses=2 type=%class.RubikSolver**]
  %3 = alloca i32, align 4                        ; [#uses=15 type=i32*]
  %children = alloca [18 x %class.RubikCube], align 16 ; [#uses=5 type=[18 x %class.RubikCube]*]
  %labels = alloca [18 x i32], align 16           ; [#uses=2 type=[18 x i32]*]
  %i = alloca i32, align 4                        ; [#uses=6 type=i32*]
  %cntValid = alloca i32, align 4                 ; [#uses=10 type=i32*]
  %move = alloca i32, align 4                     ; [#uses=3 type=i32*]
  %currentCube = alloca %class.RubikCube, align 8 ; [#uses=6 type=%class.RubikCube*]
  %cost = alloca i32, align 4                     ; [#uses=5 type=i32*]
  %4 = alloca i32                                 ; [#uses=6 type=i32*]
  %startingPoint = alloca i32, align 4            ; [#uses=4 type=i32*]
  store %class.RubikSolver* %this, %class.RubikSolver** %2, align 8
  call void @llvm.dbg.declare(metadata !{%class.RubikSolver** %2}, metadata !14301), !dbg !14302 ; [debug line = 153:18] [debug variable = this]
  call void @llvm.dbg.declare(metadata !{%class.RubikCube* %rubiksCube}, metadata !14303), !dbg !14304 ; [debug line = 153:45] [debug variable = rubiksCube]
  store i32 %depth, i32* %3, align 4
  call void @llvm.dbg.declare(metadata !{i32* %3}, metadata !14305), !dbg !14306 ; [debug line = 153:61] [debug variable = depth]
  %5 = load %class.RubikSolver** %2               ; [#uses=15 type=%class.RubikSolver*]
  call void @llvm.dbg.declare(metadata !{[18 x %class.RubikCube]* %children}, metadata !14307), !dbg !14310 ; [debug line = 155:15] [debug variable = children]
  %6 = getelementptr inbounds [18 x %class.RubikCube]* %children, i32 0, i32 0, !dbg !14311 ; [#uses=0 type=%class.RubikCube*] [debug line = 155:43]
  br label %arrayctor.loop

arrayctor.loop:                                   ; preds = %arrayctor.loop, %0
  %7 = phi i32 [ 0, %0 ], [ %8, %arrayctor.loop ], !dbg !14311 ; [#uses=3 type=i32] [debug line = 155:43]
  %8 = add i32 %7, 1, !dbg !14311                 ; [#uses=1 type=i32] [debug line = 155:43]
  %9 = getelementptr inbounds [18 x %class.RubikCube]* %children, i32 0, i32 %7, !dbg !14311 ; [#uses=1 type=%class.RubikCube*] [debug line = 155:43]
  call void @_ZN9RubikCubeC1Ev(%class.RubikCube* %9), !dbg !14311 ; [debug line = 155:43]
  %10 = icmp eq i32 %7, 17, !dbg !14311           ; [#uses=1 type=i1] [debug line = 155:43]
  br i1 %10, label %11, label %arrayctor.loop, !dbg !14311 ; [debug line = 155:43]

; <label>:11                                      ; preds = %arrayctor.loop
  br label %12, !dbg !14311                       ; [debug line = 155:43]

; <label>:12                                      ; preds = %11
  %13 = getelementptr inbounds [18 x %class.RubikCube]* %children, i32 0, i32 0, !dbg !14312 ; [#uses=1 type=%class.RubikCube*] [debug line = 156:5]
  call void @_ZN9RubikCube11getChildrenEPS_(%class.RubikCube* %rubiksCube, %class.RubikCube* %13), !dbg !14312 ; [debug line = 156:5]
  call void @llvm.dbg.declare(metadata !{[18 x i32]* %labels}, metadata !14313), !dbg !14315 ; [debug line = 157:9] [debug variable = labels]
  %14 = getelementptr inbounds [18 x i32]* %labels, i32 0, i32 0, !dbg !14316 ; [#uses=1 type=i32*] [debug line = 158:5]
  call void @_ZN9RubikCube16getChildrenLabelEPi(%class.RubikCube* %rubiksCube, i32* %14), !dbg !14316 ; [debug line = 158:5]
  call void @llvm.dbg.declare(metadata !{i32* %i}, metadata !14317), !dbg !14318 ; [debug line = 159:9] [debug variable = i]
  call void @llvm.dbg.declare(metadata !{i32* %cntValid}, metadata !14319), !dbg !14320 ; [debug line = 160:9] [debug variable = cntValid]
  store i32 0, i32* %cntValid, align 4, !dbg !14321 ; [debug line = 160:21]
  store i32 0, i32* %i, align 4, !dbg !14322      ; [debug line = 162:10]
  br label %15, !dbg !14322                       ; [debug line = 162:10]

; <label>:15                                      ; preds = %116, %12
  %16 = load i32* %i, align 4, !dbg !14322        ; [#uses=1 type=i32] [debug line = 162:10]
  %17 = icmp slt i32 %16, 18, !dbg !14322         ; [#uses=1 type=i1] [debug line = 162:10]
  br i1 %17, label %18, label %119, !dbg !14322   ; [debug line = 162:10]

; <label>:18                                      ; preds = %15
  call void @llvm.dbg.declare(metadata !{i32* %move}, metadata !14324), !dbg !14326 ; [debug line = 165:13] [debug variable = move]
  %19 = load i32* %i, align 4, !dbg !14327        ; [#uses=1 type=i32] [debug line = 165:29]
  %20 = sext i32 %19 to i64, !dbg !14327          ; [#uses=1 type=i64] [debug line = 165:29]
  %21 = getelementptr inbounds [18 x i32]* %labels, i32 0, i64 %20, !dbg !14327 ; [#uses=1 type=i32*] [debug line = 165:29]
  %22 = load i32* %21, align 4, !dbg !14327       ; [#uses=1 type=i32] [debug line = 165:29]
  store i32 %22, i32* %move, align 4, !dbg !14327 ; [debug line = 165:29]
  %23 = load i32* %move, align 4, !dbg !14328     ; [#uses=1 type=i32] [debug line = 166:13]
  %24 = getelementptr inbounds %class.RubikSolver* %5, i32 0, i32 14, !dbg !14328 ; [#uses=1 type=[32 x i32]*] [debug line = 166:13]
  %25 = getelementptr inbounds [32 x i32]* %24, i32 0, i32 0, !dbg !14328 ; [#uses=1 type=i32*] [debug line = 166:13]
  %26 = load i32* %3, align 4, !dbg !14328        ; [#uses=1 type=i32] [debug line = 166:13]
  %27 = call i32 @_ZN11RubikSolver11isRedundantEiPii(%class.RubikSolver* %5, i32 %23, i32* %25, i32 %26), !dbg !14328 ; [#uses=1 type=i32] [debug line = 166:13]
  %28 = icmp ne i32 %27, 0, !dbg !14328           ; [#uses=1 type=i1] [debug line = 166:13]
  br i1 %28, label %29, label %30, !dbg !14328    ; [debug line = 166:13]

; <label>:29                                      ; preds = %18
  br label %116, !dbg !14329                      ; [debug line = 166:54]

; <label>:30                                      ; preds = %18
  call void @llvm.dbg.declare(metadata !{%class.RubikCube* %currentCube}, metadata !14330), !dbg !14331 ; [debug line = 167:19] [debug variable = currentCube]
  %31 = load i32* %i, align 4, !dbg !14332        ; [#uses=1 type=i32] [debug line = 167:44]
  %32 = sext i32 %31 to i64, !dbg !14332          ; [#uses=1 type=i64] [debug line = 167:44]
  %33 = getelementptr inbounds [18 x %class.RubikCube]* %children, i32 0, i64 %32, !dbg !14332 ; [#uses=1 type=%class.RubikCube*] [debug line = 167:44]
  call void @_ZN9RubikCubeC1ERKS_(%class.RubikCube* %currentCube, %class.RubikCube* %33) nounwind, !dbg !14332 ; [debug line = 167:44]
  call void @llvm.dbg.declare(metadata !{i32* %cost}, metadata !14333), !dbg !14334 ; [debug line = 168:13] [debug variable = cost]
  %34 = call i32 @_ZN9RubikCube8getTwistEv(%class.RubikCube* %currentCube), !dbg !14335 ; [#uses=1 type=i32] [debug line = 168:31]
  %35 = call i32 @_ZN9RubikCube7getFlipEv(%class.RubikCube* %currentCube), !dbg !14336 ; [#uses=1 type=i32] [debug line = 168:55]
  %36 = call i32 @_ZN9RubikCube9getChoiceEv(%class.RubikCube* %currentCube), !dbg !14337 ; [#uses=1 type=i32] [debug line = 168:78]
  %37 = call i32 @_ZN11RubikSolver10phase1CostEiii(%class.RubikSolver* %5, i32 %34, i32 %35, i32 %36), !dbg !14337 ; [#uses=1 type=i32] [debug line = 168:78]
  store i32 %37, i32* %cost, align 4, !dbg !14337 ; [debug line = 168:78]
  %38 = load i32* %3, align 4, !dbg !14338        ; [#uses=1 type=i32] [debug line = 170:9]
  %39 = load i32* %cost, align 4, !dbg !14338     ; [#uses=1 type=i32] [debug line = 170:9]
  %40 = add nsw i32 %38, %39, !dbg !14338         ; [#uses=1 type=i32] [debug line = 170:9]
  %41 = add nsw i32 %40, 1, !dbg !14338           ; [#uses=1 type=i32] [debug line = 170:9]
  %42 = getelementptr inbounds %class.RubikSolver* %5, i32 0, i32 2, !dbg !14338 ; [#uses=1 type=i32*] [debug line = 170:9]
  %43 = load i32* %42, align 4, !dbg !14338       ; [#uses=1 type=i32] [debug line = 170:9]
  %44 = icmp sgt i32 %41, %43, !dbg !14338        ; [#uses=1 type=i1] [debug line = 170:9]
  br i1 %44, label %45, label %60, !dbg !14338    ; [debug line = 170:9]

; <label>:45                                      ; preds = %30
  %46 = load i32* %3, align 4, !dbg !14339        ; [#uses=1 type=i32] [debug line = 171:13]
  %47 = load i32* %cost, align 4, !dbg !14339     ; [#uses=1 type=i32] [debug line = 171:13]
  %48 = add nsw i32 %46, %47, !dbg !14339         ; [#uses=1 type=i32] [debug line = 171:13]
  %49 = add nsw i32 %48, 1, !dbg !14339           ; [#uses=1 type=i32] [debug line = 171:13]
  %50 = getelementptr inbounds %class.RubikSolver* %5, i32 0, i32 4, !dbg !14339 ; [#uses=1 type=i32*] [debug line = 171:13]
  %51 = load i32* %50, align 4, !dbg !14339       ; [#uses=1 type=i32] [debug line = 171:13]
  %52 = icmp slt i32 %49, %51, !dbg !14339        ; [#uses=1 type=i1] [debug line = 171:13]
  br i1 %52, label %53, label %59, !dbg !14339    ; [debug line = 171:13]

; <label>:53                                      ; preds = %45
  %54 = load i32* %3, align 4, !dbg !14341        ; [#uses=1 type=i32] [debug line = 172:17]
  %55 = load i32* %cost, align 4, !dbg !14341     ; [#uses=1 type=i32] [debug line = 172:17]
  %56 = add nsw i32 %54, %55, !dbg !14341         ; [#uses=1 type=i32] [debug line = 172:17]
  %57 = add nsw i32 %56, 1, !dbg !14341           ; [#uses=1 type=i32] [debug line = 172:17]
  %58 = getelementptr inbounds %class.RubikSolver* %5, i32 0, i32 4, !dbg !14341 ; [#uses=1 type=i32*] [debug line = 172:17]
  store i32 %57, i32* %58, align 4, !dbg !14341   ; [debug line = 172:17]
  br label %59, !dbg !14343                       ; [debug line = 173:13]

; <label>:59                                      ; preds = %53, %45
  store i32 4, i32* %4
  br label %114, !dbg !14344                      ; [debug line = 174:13]

; <label>:60                                      ; preds = %30
  call void @llvm.dbg.declare(metadata !{i32* %startingPoint}, metadata !14345), !dbg !14346 ; [debug line = 178:13] [debug variable = startingPoint]
  store i32 0, i32* %startingPoint, align 4, !dbg !14347 ; [debug line = 178:30]
  %61 = load i32* %3, align 4, !dbg !14348        ; [#uses=1 type=i32] [debug line = 179:9]
  %62 = icmp ne i32 %61, 0, !dbg !14348           ; [#uses=1 type=i1] [debug line = 179:9]
  br i1 %62, label %63, label %70, !dbg !14348    ; [debug line = 179:9]

; <label>:63                                      ; preds = %60
  %64 = load i32* %3, align 4, !dbg !14349        ; [#uses=1 type=i32] [debug line = 180:13]
  %65 = sub nsw i32 %64, 1, !dbg !14349           ; [#uses=1 type=i32] [debug line = 180:13]
  %66 = sext i32 %65 to i64, !dbg !14349          ; [#uses=1 type=i64] [debug line = 180:13]
  %67 = getelementptr inbounds %class.RubikSolver* %5, i32 0, i32 12, !dbg !14349 ; [#uses=1 type=[32 x i32]*] [debug line = 180:13]
  %68 = getelementptr inbounds [32 x i32]* %67, i32 0, i64 %66, !dbg !14349 ; [#uses=1 type=i32*] [debug line = 180:13]
  %69 = load i32* %68, align 4, !dbg !14349       ; [#uses=1 type=i32] [debug line = 180:13]
  store i32 %69, i32* %startingPoint, align 4, !dbg !14349 ; [debug line = 180:13]
  br label %70, !dbg !14351                       ; [debug line = 181:9]

; <label>:70                                      ; preds = %63, %60
  %71 = load i32* %startingPoint, align 4, !dbg !14352 ; [#uses=1 type=i32] [debug line = 182:9]
  %72 = load i32* %cntValid, align 4, !dbg !14352 ; [#uses=1 type=i32] [debug line = 182:9]
  %73 = add nsw i32 %71, %72, !dbg !14352         ; [#uses=1 type=i32] [debug line = 182:9]
  %74 = sext i32 %73 to i64, !dbg !14352          ; [#uses=1 type=i64] [debug line = 182:9]
  %75 = getelementptr inbounds %class.RubikSolver* %5, i32 0, i32 8, !dbg !14352 ; [#uses=1 type=[576 x %class.RubikCube]*] [debug line = 182:9]
  %76 = getelementptr inbounds [576 x %class.RubikCube]* %75, i32 0, i64 %74, !dbg !14352 ; [#uses=1 type=%class.RubikCube*] [debug line = 182:9]
  %77 = call %class.RubikCube* @_ZN9RubikCubeaSERKS_(%class.RubikCube* %76, %class.RubikCube* %currentCube) nounwind, !dbg !14352 ; [#uses=0 type=%class.RubikCube*] [debug line = 182:9]
  %78 = load i32* %move, align 4, !dbg !14353     ; [#uses=1 type=i32] [debug line = 183:9]
  %79 = load i32* %startingPoint, align 4, !dbg !14353 ; [#uses=1 type=i32] [debug line = 183:9]
  %80 = load i32* %cntValid, align 4, !dbg !14353 ; [#uses=1 type=i32] [debug line = 183:9]
  %81 = add nsw i32 %79, %80, !dbg !14353         ; [#uses=1 type=i32] [debug line = 183:9]
  %82 = sext i32 %81 to i64, !dbg !14353          ; [#uses=1 type=i64] [debug line = 183:9]
  %83 = getelementptr inbounds %class.RubikSolver* %5, i32 0, i32 10, !dbg !14353 ; [#uses=1 type=[576 x i32]*] [debug line = 183:9]
  %84 = getelementptr inbounds [576 x i32]* %83, i32 0, i64 %82, !dbg !14353 ; [#uses=1 type=i32*] [debug line = 183:9]
  store i32 %78, i32* %84, align 4, !dbg !14353   ; [debug line = 183:9]
  %85 = load i32* %cntValid, align 4, !dbg !14354 ; [#uses=1 type=i32] [debug line = 184:9]
  %86 = add nsw i32 %85, 1, !dbg !14354           ; [#uses=1 type=i32] [debug line = 184:9]
  store i32 %86, i32* %cntValid, align 4, !dbg !14354 ; [debug line = 184:9]
  %87 = load i32* %cost, align 4, !dbg !14355     ; [#uses=1 type=i32] [debug line = 185:9]
  %88 = icmp eq i32 %87, 0, !dbg !14355           ; [#uses=1 type=i1] [debug line = 185:9]
  br i1 %88, label %89, label %113, !dbg !14355   ; [debug line = 185:9]

; <label>:89                                      ; preds = %70
  %90 = load i32* %3, align 4, !dbg !14356        ; [#uses=1 type=i32] [debug line = 187:13]
  %91 = icmp sgt i32 %90, 0, !dbg !14356          ; [#uses=1 type=i1] [debug line = 187:13]
  br i1 %91, label %92, label %105, !dbg !14356   ; [debug line = 187:13]

; <label>:92                                      ; preds = %89
  %93 = load i32* %cntValid, align 4, !dbg !14358 ; [#uses=1 type=i32] [debug line = 188:17]
  %94 = load i32* %3, align 4, !dbg !14358        ; [#uses=1 type=i32] [debug line = 188:17]
  %95 = sub nsw i32 %94, 1, !dbg !14358           ; [#uses=1 type=i32] [debug line = 188:17]
  %96 = sext i32 %95 to i64, !dbg !14358          ; [#uses=1 type=i64] [debug line = 188:17]
  %97 = getelementptr inbounds %class.RubikSolver* %5, i32 0, i32 12, !dbg !14358 ; [#uses=1 type=[32 x i32]*] [debug line = 188:17]
  %98 = getelementptr inbounds [32 x i32]* %97, i32 0, i64 %96, !dbg !14358 ; [#uses=1 type=i32*] [debug line = 188:17]
  %99 = load i32* %98, align 4, !dbg !14358       ; [#uses=1 type=i32] [debug line = 188:17]
  %100 = add nsw i32 %93, %99, !dbg !14358        ; [#uses=1 type=i32] [debug line = 188:17]
  %101 = load i32* %3, align 4, !dbg !14358       ; [#uses=1 type=i32] [debug line = 188:17]
  %102 = sext i32 %101 to i64, !dbg !14358        ; [#uses=1 type=i64] [debug line = 188:17]
  %103 = getelementptr inbounds %class.RubikSolver* %5, i32 0, i32 12, !dbg !14358 ; [#uses=1 type=[32 x i32]*] [debug line = 188:17]
  %104 = getelementptr inbounds [32 x i32]* %103, i32 0, i64 %102, !dbg !14358 ; [#uses=1 type=i32*] [debug line = 188:17]
  store i32 %100, i32* %104, align 4, !dbg !14358 ; [debug line = 188:17]
  br label %112, !dbg !14358                      ; [debug line = 188:17]

; <label>:105                                     ; preds = %89
  %106 = load i32* %cntValid, align 4, !dbg !14359 ; [#uses=1 type=i32] [debug line = 190:17]
  %107 = add nsw i32 %106, 1, !dbg !14359         ; [#uses=1 type=i32] [debug line = 190:17]
  %108 = load i32* %3, align 4, !dbg !14359       ; [#uses=1 type=i32] [debug line = 190:17]
  %109 = sext i32 %108 to i64, !dbg !14359        ; [#uses=1 type=i64] [debug line = 190:17]
  %110 = getelementptr inbounds %class.RubikSolver* %5, i32 0, i32 12, !dbg !14359 ; [#uses=1 type=[32 x i32]*] [debug line = 190:17]
  %111 = getelementptr inbounds [32 x i32]* %110, i32 0, i64 %109, !dbg !14359 ; [#uses=1 type=i32*] [debug line = 190:17]
  store i32 %107, i32* %111, align 4, !dbg !14359 ; [debug line = 190:17]
  br label %112

; <label>:112                                     ; preds = %105, %92
  store i32 1, i32* %1, !dbg !14360               ; [debug line = 191:13]
  store i32 1, i32* %4
  br label %114, !dbg !14360                      ; [debug line = 191:13]

; <label>:113                                     ; preds = %70
  store i32 0, i32* %4, !dbg !14361               ; [debug line = 193:5]
  br label %114, !dbg !14361                      ; [debug line = 193:5]

; <label>:114                                     ; preds = %113, %112, %59
  call void @_ZN9RubikCubeD1Ev(%class.RubikCube* %currentCube), !dbg !14361 ; [debug line = 193:5]
  %cleanup.dest = load i32* %4                    ; [#uses=1 type=i32]
  switch i32 %cleanup.dest, label %146 [
    i32 0, label %115
    i32 4, label %116
  ]

; <label>:115                                     ; preds = %114
  br label %116, !dbg !14361                      ; [debug line = 193:5]

; <label>:116                                     ; preds = %115, %114, %29
  %117 = load i32* %i, align 4, !dbg !14362       ; [#uses=1 type=i32] [debug line = 162:40]
  %118 = add nsw i32 %117, 1, !dbg !14362         ; [#uses=1 type=i32] [debug line = 162:40]
  store i32 %118, i32* %i, align 4, !dbg !14362   ; [debug line = 162:40]
  br label %15, !dbg !14362                       ; [debug line = 162:40]

; <label>:119                                     ; preds = %15
  %120 = load i32* %cntValid, align 4, !dbg !14363 ; [#uses=1 type=i32] [debug line = 194:5]
  %121 = icmp eq i32 %120, 0, !dbg !14363         ; [#uses=1 type=i1] [debug line = 194:5]
  br i1 %121, label %122, label %123, !dbg !14363 ; [debug line = 194:5]

; <label>:122                                     ; preds = %119
  store i32 4, i32* %1, !dbg !14364               ; [debug line = 195:9]
  store i32 1, i32* %4
  br label %146, !dbg !14364                      ; [debug line = 195:9]

; <label>:123                                     ; preds = %119
  %124 = load i32* %3, align 4, !dbg !14365       ; [#uses=1 type=i32] [debug line = 197:5]
  %125 = icmp sgt i32 %124, 0, !dbg !14365        ; [#uses=1 type=i1] [debug line = 197:5]
  br i1 %125, label %126, label %139, !dbg !14365 ; [debug line = 197:5]

; <label>:126                                     ; preds = %123
  %127 = load i32* %cntValid, align 4, !dbg !14366 ; [#uses=1 type=i32] [debug line = 198:9]
  %128 = load i32* %3, align 4, !dbg !14366       ; [#uses=1 type=i32] [debug line = 198:9]
  %129 = sub nsw i32 %128, 1, !dbg !14366         ; [#uses=1 type=i32] [debug line = 198:9]
  %130 = sext i32 %129 to i64, !dbg !14366        ; [#uses=1 type=i64] [debug line = 198:9]
  %131 = getelementptr inbounds %class.RubikSolver* %5, i32 0, i32 12, !dbg !14366 ; [#uses=1 type=[32 x i32]*] [debug line = 198:9]
  %132 = getelementptr inbounds [32 x i32]* %131, i32 0, i64 %130, !dbg !14366 ; [#uses=1 type=i32*] [debug line = 198:9]
  %133 = load i32* %132, align 4, !dbg !14366     ; [#uses=1 type=i32] [debug line = 198:9]
  %134 = add nsw i32 %127, %133, !dbg !14366      ; [#uses=1 type=i32] [debug line = 198:9]
  %135 = load i32* %3, align 4, !dbg !14366       ; [#uses=1 type=i32] [debug line = 198:9]
  %136 = sext i32 %135 to i64, !dbg !14366        ; [#uses=1 type=i64] [debug line = 198:9]
  %137 = getelementptr inbounds %class.RubikSolver* %5, i32 0, i32 12, !dbg !14366 ; [#uses=1 type=[32 x i32]*] [debug line = 198:9]
  %138 = getelementptr inbounds [32 x i32]* %137, i32 0, i64 %136, !dbg !14366 ; [#uses=1 type=i32*] [debug line = 198:9]
  store i32 %134, i32* %138, align 4, !dbg !14366 ; [debug line = 198:9]
  br label %145, !dbg !14366                      ; [debug line = 198:9]

; <label>:139                                     ; preds = %123
  %140 = load i32* %cntValid, align 4, !dbg !14367 ; [#uses=1 type=i32] [debug line = 200:9]
  %141 = load i32* %3, align 4, !dbg !14367       ; [#uses=1 type=i32] [debug line = 200:9]
  %142 = sext i32 %141 to i64, !dbg !14367        ; [#uses=1 type=i64] [debug line = 200:9]
  %143 = getelementptr inbounds %class.RubikSolver* %5, i32 0, i32 12, !dbg !14367 ; [#uses=1 type=[32 x i32]*] [debug line = 200:9]
  %144 = getelementptr inbounds [32 x i32]* %143, i32 0, i64 %142, !dbg !14367 ; [#uses=1 type=i32*] [debug line = 200:9]
  store i32 %140, i32* %144, align 4, !dbg !14367 ; [debug line = 200:9]
  br label %145

; <label>:145                                     ; preds = %139, %126
  store i32 0, i32* %1, !dbg !14368               ; [debug line = 201:5]
  store i32 1, i32* %4
  br label %146, !dbg !14368                      ; [debug line = 201:5]

; <label>:146                                     ; preds = %145, %122, %114
  %147 = getelementptr inbounds [18 x %class.RubikCube]* %children, i32 0, i32 0, !dbg !14369 ; [#uses=2 type=%class.RubikCube*] [debug line = 208:1]
  %148 = getelementptr inbounds %class.RubikCube* %147, i64 18, !dbg !14369 ; [#uses=1 type=%class.RubikCube*] [debug line = 208:1]
  br label %149, !dbg !14369                      ; [debug line = 208:1]

; <label>:149                                     ; preds = %149, %146
  %150 = phi %class.RubikCube* [ %148, %146 ], [ %151, %149 ], !dbg !14369 ; [#uses=1 type=%class.RubikCube*] [debug line = 208:1]
  %151 = getelementptr inbounds %class.RubikCube* %150, i64 -1, !dbg !14369 ; [#uses=3 type=%class.RubikCube*] [debug line = 208:1]
  call void @_ZN9RubikCubeD1Ev(%class.RubikCube* %151), !dbg !14369 ; [debug line = 208:1]
  %152 = icmp eq %class.RubikCube* %151, %147, !dbg !14369 ; [#uses=1 type=i1] [debug line = 208:1]
  br i1 %152, label %153, label %149, !dbg !14369 ; [debug line = 208:1]

; <label>:153                                     ; preds = %149
  %154 = load i32* %1, !dbg !14370                ; [#uses=1 type=i32] [debug line = 208:1]
  ret i32 %154, !dbg !14370                       ; [debug line = 208:1]
}

; [#uses=1]
define i32 @_ZN11RubikSolver6solve2ER9RubikCube(%class.RubikSolver* %this, %class.RubikCube* %cube) nounwind uwtable align 2 {
  %1 = alloca %class.RubikSolver*, align 8        ; [#uses=2 type=%class.RubikSolver**]
  %2 = alloca %class.RubikCube*, align 8          ; [#uses=5 type=%class.RubikCube**]
  %iteration = alloca i32, align 4                ; [#uses=3 type=i32*]
  %result = alloca i32, align 4                   ; [#uses=4 type=i32*]
  %3 = alloca %class.RubikCube, align 8           ; [#uses=3 type=%class.RubikCube*]
  store %class.RubikSolver* %this, %class.RubikSolver** %1, align 8
  call void @llvm.dbg.declare(metadata !{%class.RubikSolver** %1}, metadata !14371), !dbg !14372 ; [debug line = 295:18] [debug variable = this]
  store %class.RubikCube* %cube, %class.RubikCube** %2, align 8
  call void @llvm.dbg.declare(metadata !{%class.RubikCube** %2}, metadata !14373), !dbg !14374 ; [debug line = 295:36] [debug variable = cube]
  %4 = load %class.RubikSolver** %1               ; [#uses=8 type=%class.RubikSolver*]
  call void @llvm.dbg.declare(metadata !{i32* %iteration}, metadata !14375), !dbg !14377 ; [debug line = 297:9] [debug variable = iteration]
  store i32 1, i32* %iteration, align 4, !dbg !14378 ; [debug line = 297:22]
  call void @llvm.dbg.declare(metadata !{i32* %result}, metadata !14379), !dbg !14380 ; [debug line = 298:9] [debug variable = result]
  store i32 0, i32* %result, align 4, !dbg !14381 ; [debug line = 298:27]
  %5 = load %class.RubikCube** %2, align 8, !dbg !14382 ; [#uses=1 type=%class.RubikCube*] [debug line = 302:13]
  %6 = call i32 @_ZN9RubikCube20getCornerPermutationEv(%class.RubikCube* %5), !dbg !14382 ; [#uses=1 type=i32] [debug line = 302:13]
  %7 = load %class.RubikCube** %2, align 8, !dbg !14383 ; [#uses=1 type=%class.RubikCube*] [debug line = 303:13]
  %8 = call i32 @_ZN9RubikCube27getNotMiddleEdgePermutationEv(%class.RubikCube* %7), !dbg !14383 ; [#uses=1 type=i32] [debug line = 303:13]
  %9 = load %class.RubikCube** %2, align 8, !dbg !14384 ; [#uses=1 type=%class.RubikCube*] [debug line = 304:13]
  %10 = call i32 @_ZN9RubikCube24getMiddleEdgePermutationEv(%class.RubikCube* %9), !dbg !14384 ; [#uses=1 type=i32] [debug line = 304:13]
  %11 = call i32 @_ZN11RubikSolver10phase2CostEiii(%class.RubikSolver* %4, i32 %6, i32 %8, i32 %10), !dbg !14384 ; [#uses=1 type=i32] [debug line = 304:13]
  %12 = getelementptr inbounds %class.RubikSolver* %4, i32 0, i32 3, !dbg !14384 ; [#uses=1 type=i32*] [debug line = 304:13]
  store i32 %11, i32* %12, align 4, !dbg !14384   ; [debug line = 304:13]
  %13 = getelementptr inbounds %class.RubikSolver* %4, i32 0, i32 1, !dbg !14385 ; [#uses=1 type=i32*] [debug line = 306:5]
  store i32 1, i32* %13, align 4, !dbg !14385     ; [debug line = 306:5]
  %14 = getelementptr inbounds %class.RubikSolver* %4, i32 0, i32 17, !dbg !14386 ; [#uses=1 type=i32*] [debug line = 307:5]
  store i32 0, i32* %14, align 4, !dbg !14386     ; [debug line = 307:5]
  br label %15, !dbg !14387                       ; [debug line = 309:5]

; <label>:15                                      ; preds = %24, %0
  %16 = getelementptr inbounds %class.RubikSolver* %4, i32 0, i32 5, !dbg !14388 ; [#uses=1 type=i32*] [debug line = 311:9]
  store i32 10000, i32* %16, align 4, !dbg !14388 ; [debug line = 311:9]
  %17 = load %class.RubikCube** %2, align 8, !dbg !14390 ; [#uses=1 type=%class.RubikCube*] [debug line = 314:18]
  call void @_ZN9RubikCubeC1ERKS_(%class.RubikCube* %3, %class.RubikCube* %17) nounwind, !dbg !14390 ; [debug line = 314:18]
  %18 = call i32 @_ZN11RubikSolver21iterativeSearchPhase2E9RubikCube(%class.RubikSolver* %4, %class.RubikCube* %3), !dbg !14390 ; [#uses=1 type=i32] [debug line = 314:18]
  store i32 %18, i32* %result, align 4, !dbg !14390 ; [debug line = 314:18]
  call void @_ZN9RubikCubeD1Ev(%class.RubikCube* %3), !dbg !14390 ; [debug line = 314:18]
  %19 = getelementptr inbounds %class.RubikSolver* %4, i32 0, i32 5, !dbg !14391 ; [#uses=1 type=i32*] [debug line = 318:9]
  %20 = load i32* %19, align 4, !dbg !14391       ; [#uses=1 type=i32] [debug line = 318:9]
  %21 = getelementptr inbounds %class.RubikSolver* %4, i32 0, i32 3, !dbg !14391 ; [#uses=1 type=i32*] [debug line = 318:9]
  store i32 %20, i32* %21, align 4, !dbg !14391   ; [debug line = 318:9]
  %22 = load i32* %iteration, align 4, !dbg !14392 ; [#uses=1 type=i32] [debug line = 321:9]
  %23 = add nsw i32 %22, 1, !dbg !14392           ; [#uses=1 type=i32] [debug line = 321:9]
  store i32 %23, i32* %iteration, align 4, !dbg !14392 ; [debug line = 321:9]
  br label %24, !dbg !14393                       ; [debug line = 322:5]

; <label>:24                                      ; preds = %15
  %25 = load i32* %result, align 4, !dbg !14393   ; [#uses=1 type=i32] [debug line = 322:5]
  %26 = icmp eq i32 %25, 0, !dbg !14393           ; [#uses=1 type=i1] [debug line = 322:5]
  br i1 %26, label %15, label %27, !dbg !14393    ; [debug line = 322:5]

; <label>:27                                      ; preds = %24
  %28 = load i32* %result, align 4, !dbg !14394   ; [#uses=1 type=i32] [debug line = 325:5]
  ret i32 %28, !dbg !14394                        ; [debug line = 325:5]
}

; [#uses=2]
define i32 @_ZN11RubikSolver11isRedundantEiPii(%class.RubikSolver* %this, i32 %move, i32* %solution, i32 %depth) nounwind uwtable align 2 {
  %1 = alloca i32, align 4                        ; [#uses=7 type=i32*]
  %2 = alloca %class.RubikSolver*, align 8        ; [#uses=2 type=%class.RubikSolver**]
  %3 = alloca i32, align 4                        ; [#uses=7 type=i32*]
  %4 = alloca i32*, align 8                       ; [#uses=7 type=i32**]
  %5 = alloca i32, align 4                        ; [#uses=9 type=i32*]
  store %class.RubikSolver* %this, %class.RubikSolver** %2, align 8
  call void @llvm.dbg.declare(metadata !{%class.RubikSolver** %2}, metadata !14395), !dbg !14396 ; [debug line = 534:18] [debug variable = this]
  store i32 %move, i32* %3, align 4
  call void @llvm.dbg.declare(metadata !{i32* %3}, metadata !14397), !dbg !14398 ; [debug line = 534:34] [debug variable = move]
  store i32* %solution, i32** %4, align 8
  call void @llvm.dbg.declare(metadata !{i32** %4}, metadata !14399), !dbg !14400 ; [debug line = 534:45] [debug variable = solution]
  store i32 %depth, i32* %5, align 4
  call void @llvm.dbg.declare(metadata !{i32* %5}, metadata !14401), !dbg !14402 ; [debug line = 534:59] [debug variable = depth]
  %6 = load %class.RubikSolver** %2               ; [#uses=0 type=%class.RubikSolver*]
  %7 = load i32* %5, align 4, !dbg !14403         ; [#uses=1 type=i32] [debug line = 535:5]
  %8 = icmp sgt i32 %7, 0, !dbg !14403            ; [#uses=1 type=i1] [debug line = 535:5]
  br i1 %8, label %9, label %79, !dbg !14403      ; [debug line = 535:5]

; <label>:9                                       ; preds = %0
  %10 = load i32* %5, align 4, !dbg !14405        ; [#uses=1 type=i32] [debug line = 537:9]
  %11 = sub nsw i32 %10, 1, !dbg !14405           ; [#uses=1 type=i32] [debug line = 537:9]
  %12 = sext i32 %11 to i64, !dbg !14405          ; [#uses=1 type=i64] [debug line = 537:9]
  %13 = load i32** %4, align 8, !dbg !14405       ; [#uses=1 type=i32*] [debug line = 537:9]
  %14 = getelementptr inbounds i32* %13, i64 %12, !dbg !14405 ; [#uses=1 type=i32*] [debug line = 537:9]
  %15 = load i32* %14, align 4, !dbg !14405       ; [#uses=1 type=i32] [debug line = 537:9]
  %16 = load i32* %3, align 4, !dbg !14405        ; [#uses=1 type=i32] [debug line = 537:9]
  %17 = icmp eq i32 %15, %16, !dbg !14405         ; [#uses=1 type=i1] [debug line = 537:9]
  br i1 %17, label %18, label %19, !dbg !14405    ; [debug line = 537:9]

; <label>:18                                      ; preds = %9
  store i32 1, i32* %1, !dbg !14407               ; [debug line = 538:13]
  br label %80, !dbg !14407                       ; [debug line = 538:13]

; <label>:19                                      ; preds = %9
  %20 = load i32* %3, align 4, !dbg !14408        ; [#uses=1 type=i32] [debug line = 541:9]
  %21 = icmp eq i32 %20, 4, !dbg !14408           ; [#uses=1 type=i1] [debug line = 541:9]
  br i1 %21, label %22, label %31, !dbg !14408    ; [debug line = 541:9]

; <label>:22                                      ; preds = %19
  %23 = load i32* %5, align 4, !dbg !14408        ; [#uses=1 type=i32] [debug line = 541:9]
  %24 = sub nsw i32 %23, 1, !dbg !14408           ; [#uses=1 type=i32] [debug line = 541:9]
  %25 = sext i32 %24 to i64, !dbg !14408          ; [#uses=1 type=i64] [debug line = 541:9]
  %26 = load i32** %4, align 8, !dbg !14408       ; [#uses=1 type=i32*] [debug line = 541:9]
  %27 = getelementptr inbounds i32* %26, i64 %25, !dbg !14408 ; [#uses=1 type=i32*] [debug line = 541:9]
  %28 = load i32* %27, align 4, !dbg !14408       ; [#uses=1 type=i32] [debug line = 541:9]
  %29 = icmp eq i32 %28, 5, !dbg !14408           ; [#uses=1 type=i1] [debug line = 541:9]
  br i1 %29, label %30, label %31, !dbg !14408    ; [debug line = 541:9]

; <label>:30                                      ; preds = %22
  store i32 1, i32* %1, !dbg !14409               ; [debug line = 542:13]
  br label %80, !dbg !14409                       ; [debug line = 542:13]

; <label>:31                                      ; preds = %22, %19
  %32 = load i32* %3, align 4, !dbg !14410        ; [#uses=1 type=i32] [debug line = 543:9]
  %33 = icmp eq i32 %32, 0, !dbg !14410           ; [#uses=1 type=i1] [debug line = 543:9]
  br i1 %33, label %34, label %43, !dbg !14410    ; [debug line = 543:9]

; <label>:34                                      ; preds = %31
  %35 = load i32* %5, align 4, !dbg !14410        ; [#uses=1 type=i32] [debug line = 543:9]
  %36 = sub nsw i32 %35, 1, !dbg !14410           ; [#uses=1 type=i32] [debug line = 543:9]
  %37 = sext i32 %36 to i64, !dbg !14410          ; [#uses=1 type=i64] [debug line = 543:9]
  %38 = load i32** %4, align 8, !dbg !14410       ; [#uses=1 type=i32*] [debug line = 543:9]
  %39 = getelementptr inbounds i32* %38, i64 %37, !dbg !14410 ; [#uses=1 type=i32*] [debug line = 543:9]
  %40 = load i32* %39, align 4, !dbg !14410       ; [#uses=1 type=i32] [debug line = 543:9]
  %41 = icmp eq i32 %40, 1, !dbg !14410           ; [#uses=1 type=i1] [debug line = 543:9]
  br i1 %41, label %42, label %43, !dbg !14410    ; [debug line = 543:9]

; <label>:42                                      ; preds = %34
  store i32 1, i32* %1, !dbg !14411               ; [debug line = 544:13]
  br label %80, !dbg !14411                       ; [debug line = 544:13]

; <label>:43                                      ; preds = %34, %31
  %44 = load i32* %3, align 4, !dbg !14412        ; [#uses=1 type=i32] [debug line = 545:9]
  %45 = icmp eq i32 %44, 2, !dbg !14412           ; [#uses=1 type=i1] [debug line = 545:9]
  br i1 %45, label %46, label %55, !dbg !14412    ; [debug line = 545:9]

; <label>:46                                      ; preds = %43
  %47 = load i32* %5, align 4, !dbg !14412        ; [#uses=1 type=i32] [debug line = 545:9]
  %48 = sub nsw i32 %47, 1, !dbg !14412           ; [#uses=1 type=i32] [debug line = 545:9]
  %49 = sext i32 %48 to i64, !dbg !14412          ; [#uses=1 type=i64] [debug line = 545:9]
  %50 = load i32** %4, align 8, !dbg !14412       ; [#uses=1 type=i32*] [debug line = 545:9]
  %51 = getelementptr inbounds i32* %50, i64 %49, !dbg !14412 ; [#uses=1 type=i32*] [debug line = 545:9]
  %52 = load i32* %51, align 4, !dbg !14412       ; [#uses=1 type=i32] [debug line = 545:9]
  %53 = icmp eq i32 %52, 3, !dbg !14412           ; [#uses=1 type=i1] [debug line = 545:9]
  br i1 %53, label %54, label %55, !dbg !14412    ; [debug line = 545:9]

; <label>:54                                      ; preds = %46
  store i32 1, i32* %1, !dbg !14413               ; [debug line = 546:13]
  br label %80, !dbg !14413                       ; [debug line = 546:13]

; <label>:55                                      ; preds = %46, %43
  %56 = load i32* %5, align 4, !dbg !14414        ; [#uses=1 type=i32] [debug line = 550:9]
  %57 = icmp sgt i32 %56, 1, !dbg !14414          ; [#uses=1 type=i1] [debug line = 550:9]
  br i1 %57, label %58, label %78, !dbg !14414    ; [debug line = 550:9]

; <label>:58                                      ; preds = %55
  %59 = load i32* %5, align 4, !dbg !14414        ; [#uses=1 type=i32] [debug line = 550:9]
  %60 = sub nsw i32 %59, 2, !dbg !14414           ; [#uses=1 type=i32] [debug line = 550:9]
  %61 = sext i32 %60 to i64, !dbg !14414          ; [#uses=1 type=i64] [debug line = 550:9]
  %62 = load i32** %4, align 8, !dbg !14414       ; [#uses=1 type=i32*] [debug line = 550:9]
  %63 = getelementptr inbounds i32* %62, i64 %61, !dbg !14414 ; [#uses=1 type=i32*] [debug line = 550:9]
  %64 = load i32* %63, align 4, !dbg !14414       ; [#uses=1 type=i32] [debug line = 550:9]
  %65 = load i32* %3, align 4, !dbg !14414        ; [#uses=1 type=i32] [debug line = 550:9]
  %66 = icmp eq i32 %64, %65, !dbg !14414         ; [#uses=1 type=i1] [debug line = 550:9]
  br i1 %66, label %67, label %78, !dbg !14414    ; [debug line = 550:9]

; <label>:67                                      ; preds = %58
  %68 = load i32* %5, align 4, !dbg !14414        ; [#uses=1 type=i32] [debug line = 550:9]
  %69 = sub nsw i32 %68, 1, !dbg !14414           ; [#uses=1 type=i32] [debug line = 550:9]
  %70 = sext i32 %69 to i64, !dbg !14414          ; [#uses=1 type=i64] [debug line = 550:9]
  %71 = load i32** %4, align 8, !dbg !14414       ; [#uses=1 type=i32*] [debug line = 550:9]
  %72 = getelementptr inbounds i32* %71, i64 %70, !dbg !14414 ; [#uses=1 type=i32*] [debug line = 550:9]
  %73 = load i32* %72, align 4, !dbg !14414       ; [#uses=1 type=i32] [debug line = 550:9]
  %74 = load i32* %3, align 4, !dbg !14415        ; [#uses=1 type=i32] [debug line = 551:33]
  %75 = call i32 @_ZN4Cube12opposingFaceEi(i32 %74), !dbg !14415 ; [#uses=1 type=i32] [debug line = 551:33]
  %76 = icmp eq i32 %73, %75, !dbg !14415         ; [#uses=1 type=i1] [debug line = 551:33]
  br i1 %76, label %77, label %78, !dbg !14415    ; [debug line = 551:33]

; <label>:77                                      ; preds = %67
  store i32 1, i32* %1, !dbg !14416               ; [debug line = 552:13]
  br label %80, !dbg !14416                       ; [debug line = 552:13]

; <label>:78                                      ; preds = %67, %58, %55
  br label %79, !dbg !14417                       ; [debug line = 553:5]

; <label>:79                                      ; preds = %78, %0
  store i32 0, i32* %1, !dbg !14418               ; [debug line = 554:5]
  br label %80, !dbg !14418                       ; [debug line = 554:5]

; <label>:80                                      ; preds = %79, %77, %54, %42, %30, %18
  %81 = load i32* %1, !dbg !14419                 ; [#uses=1 type=i32] [debug line = 555:1]
  ret i32 %81, !dbg !14419                        ; [debug line = 555:1]
}

; [#uses=2]
define i32 @_ZN11RubikSolver10phase2CostEiii(%class.RubikSolver* %this, i32 %cornerPermutation, i32 %nonMiddleEdgePermutation, i32 %middleEdgePermutation) nounwind uwtable align 2 {
  %1 = alloca %class.RubikSolver*, align 8        ; [#uses=2 type=%class.RubikSolver**]
  %2 = alloca i32, align 4                        ; [#uses=2 type=i32*]
  %3 = alloca i32, align 4                        ; [#uses=2 type=i32*]
  %4 = alloca i32, align 4                        ; [#uses=3 type=i32*]
  %cost = alloca i32, align 4                     ; [#uses=4 type=i32*]
  %cost2 = alloca i32, align 4                    ; [#uses=3 type=i32*]
  store %class.RubikSolver* %this, %class.RubikSolver** %1, align 8
  call void @llvm.dbg.declare(metadata !{%class.RubikSolver** %1}, metadata !14420), !dbg !14421 ; [debug line = 524:18] [debug variable = this]
  store i32 %cornerPermutation, i32* %2, align 4
  call void @llvm.dbg.declare(metadata !{i32* %2}, metadata !14422), !dbg !14423 ; [debug line = 524:33] [debug variable = cornerPermutation]
  store i32 %nonMiddleEdgePermutation, i32* %3, align 4
  call void @llvm.dbg.declare(metadata !{i32* %3}, metadata !14424), !dbg !14425 ; [debug line = 524:56] [debug variable = nonMiddleEdgePermutation]
  store i32 %middleEdgePermutation, i32* %4, align 4
  call void @llvm.dbg.declare(metadata !{i32* %4}, metadata !14426), !dbg !14427 ; [debug line = 524:86] [debug variable = middleEdgePermutation]
  %5 = load %class.RubikSolver** %1               ; [#uses=2 type=%class.RubikSolver*]
  call void @llvm.dbg.declare(metadata !{i32* %cost}, metadata !14428), !dbg !14430 ; [debug line = 525:9] [debug variable = cost]
  %6 = getelementptr inbounds %class.RubikSolver* %5, i32 0, i32 23, !dbg !14431 ; [#uses=1 type=%class.Table*] [debug line = 525:16]
  %7 = load i32* %2, align 4, !dbg !14431         ; [#uses=1 type=i32] [debug line = 525:16]
  %8 = mul nsw i32 %7, 24, !dbg !14431            ; [#uses=1 type=i32] [debug line = 525:16]
  %9 = load i32* %4, align 4, !dbg !14431         ; [#uses=1 type=i32] [debug line = 525:16]
  %10 = add nsw i32 %8, %9, !dbg !14431           ; [#uses=1 type=i32] [debug line = 525:16]
  %11 = call i32 @_ZN5Table8getValueEi(%class.Table* %6, i32 %10), !dbg !14431 ; [#uses=1 type=i32] [debug line = 525:16]
  store i32 %11, i32* %cost, align 4, !dbg !14431 ; [debug line = 525:16]
  call void @llvm.dbg.declare(metadata !{i32* %cost2}, metadata !14432), !dbg !14433 ; [debug line = 527:9] [debug variable = cost2]
  %12 = getelementptr inbounds %class.RubikSolver* %5, i32 0, i32 24, !dbg !14434 ; [#uses=1 type=%class.Table*] [debug line = 527:17]
  %13 = load i32* %3, align 4, !dbg !14434        ; [#uses=1 type=i32] [debug line = 527:17]
  %14 = mul nsw i32 %13, 24, !dbg !14434          ; [#uses=1 type=i32] [debug line = 527:17]
  %15 = load i32* %4, align 4, !dbg !14434        ; [#uses=1 type=i32] [debug line = 527:17]
  %16 = add nsw i32 %14, %15, !dbg !14434         ; [#uses=1 type=i32] [debug line = 527:17]
  %17 = call i32 @_ZN5Table8getValueEi(%class.Table* %12, i32 %16), !dbg !14434 ; [#uses=1 type=i32] [debug line = 527:17]
  store i32 %17, i32* %cost2, align 4, !dbg !14434 ; [debug line = 527:17]
  %18 = load i32* %cost2, align 4, !dbg !14435    ; [#uses=1 type=i32] [debug line = 529:5]
  %19 = load i32* %cost, align 4, !dbg !14435     ; [#uses=1 type=i32] [debug line = 529:5]
  %20 = icmp sgt i32 %18, %19, !dbg !14435        ; [#uses=1 type=i1] [debug line = 529:5]
  br i1 %20, label %21, label %23, !dbg !14435    ; [debug line = 529:5]

; <label>:21                                      ; preds = %0
  %22 = load i32* %cost2, align 4, !dbg !14436    ; [#uses=1 type=i32] [debug line = 529:23]
  store i32 %22, i32* %cost, align 4, !dbg !14436 ; [debug line = 529:23]
  br label %23, !dbg !14436                       ; [debug line = 529:23]

; <label>:23                                      ; preds = %21, %0
  %24 = load i32* %cost, align 4, !dbg !14437     ; [#uses=1 type=i32] [debug line = 530:5]
  ret i32 %24, !dbg !14437                        ; [debug line = 530:5]
}

; [#uses=1]
define i32 @_ZN11RubikSolver21iterativeSearchPhase2E9RubikCube(%class.RubikSolver* %this, %class.RubikCube* %rubiksCube) nounwind uwtable align 2 {
  %1 = alloca i32, align 4                        ; [#uses=5 type=i32*]
  %2 = alloca %class.RubikSolver*, align 8        ; [#uses=2 type=%class.RubikSolver**]
  %v = alloca i32, align 4                        ; [#uses=7 type=i32*]
  %depth = alloca i32, align 4                    ; [#uses=34 type=i32*]
  %3 = alloca %class.RubikCube, align 8           ; [#uses=3 type=%class.RubikCube*]
  store %class.RubikSolver* %this, %class.RubikSolver** %2, align 8
  call void @llvm.dbg.declare(metadata !{%class.RubikSolver** %2}, metadata !14438), !dbg !14439 ; [debug line = 329:18] [debug variable = this]
  call void @llvm.dbg.declare(metadata !{%class.RubikCube* %rubiksCube}, metadata !14440), !dbg !14441 ; [debug line = 329:50] [debug variable = rubiksCube]
  %4 = load %class.RubikSolver** %2               ; [#uses=28 type=%class.RubikSolver*]
  call void @llvm.dbg.declare(metadata !{i32* %v}, metadata !14442), !dbg !14444 ; [debug line = 331:9] [debug variable = v]
  store i32 0, i32* %v, align 4, !dbg !14445      ; [debug line = 331:22]
  call void @llvm.dbg.declare(metadata !{i32* %depth}, metadata !14446), !dbg !14447 ; [debug line = 332:9] [debug variable = depth]
  store i32 0, i32* %depth, align 4, !dbg !14448  ; [debug line = 332:18]
  br label %5, !dbg !14449                        ; [debug line = 333:5]

; <label>:5                                       ; preds = %179, %0
  %6 = load i32* %v, align 4, !dbg !14449         ; [#uses=1 type=i32] [debug line = 333:5]
  %7 = icmp eq i32 %6, 0, !dbg !14449             ; [#uses=1 type=i1] [debug line = 333:5]
  br i1 %7, label %11, label %8, !dbg !14449      ; [debug line = 333:5]

; <label>:8                                       ; preds = %5
  %9 = load i32* %v, align 4, !dbg !14449         ; [#uses=1 type=i32] [debug line = 333:5]
  %10 = icmp eq i32 %9, 4, !dbg !14449            ; [#uses=1 type=i1] [debug line = 333:5]
  br label %11, !dbg !14449                       ; [debug line = 333:5]

; <label>:11                                      ; preds = %8, %5
  %12 = phi i1 [ true, %5 ], [ %10, %8 ]          ; [#uses=1 type=i1]
  br i1 %12, label %13, label %180, !dbg !14449   ; [debug line = 333:5]

; <label>:13                                      ; preds = %11
  call void @_ZN9RubikCubeC1ERKS_(%class.RubikCube* %3, %class.RubikCube* %rubiksCube) nounwind, !dbg !14450 ; [debug line = 335:13]
  %14 = load i32* %depth, align 4, !dbg !14450    ; [#uses=1 type=i32] [debug line = 335:13]
  %15 = call i32 @_ZN11RubikSolver17generateChildren2E9RubikCubei(%class.RubikSolver* %4, %class.RubikCube* %3, i32 %14), !dbg !14450 ; [#uses=1 type=i32] [debug line = 335:13]
  store i32 %15, i32* %v, align 4, !dbg !14450    ; [debug line = 335:13]
  call void @_ZN9RubikCubeD1Ev(%class.RubikCube* %3), !dbg !14450 ; [debug line = 335:13]
  %16 = load i32* %v, align 4, !dbg !14452        ; [#uses=1 type=i32] [debug line = 336:9]
  %17 = icmp eq i32 %16, 4, !dbg !14452           ; [#uses=1 type=i1] [debug line = 336:9]
  br i1 %17, label %18, label %84, !dbg !14452    ; [debug line = 336:9]

; <label>:18                                      ; preds = %13
  %19 = load i32* %depth, align 4, !dbg !14453    ; [#uses=1 type=i32] [debug line = 337:13]
  %20 = add nsw i32 %19, -1, !dbg !14453          ; [#uses=1 type=i32] [debug line = 337:13]
  store i32 %20, i32* %depth, align 4, !dbg !14453 ; [debug line = 337:13]
  %21 = load i32* %depth, align 4, !dbg !14455    ; [#uses=1 type=i32] [debug line = 338:13]
  %22 = icmp slt i32 %21, 0, !dbg !14455          ; [#uses=1 type=i1] [debug line = 338:13]
  br i1 %22, label %23, label %24, !dbg !14455    ; [debug line = 338:13]

; <label>:23                                      ; preds = %18
  store i32 0, i32* %1, !dbg !14456               ; [debug line = 339:17]
  br label %180, !dbg !14456                      ; [debug line = 339:17]

; <label>:24                                      ; preds = %18
  br label %25, !dbg !14457                       ; [debug line = 340:13]

; <label>:25                                      ; preds = %44, %24
  %26 = load i32* %depth, align 4, !dbg !14457    ; [#uses=1 type=i32] [debug line = 340:13]
  %27 = sext i32 %26 to i64, !dbg !14457          ; [#uses=1 type=i64] [debug line = 340:13]
  %28 = getelementptr inbounds %class.RubikSolver* %4, i32 0, i32 7, !dbg !14457 ; [#uses=1 type=[32 x i32]*] [debug line = 340:13]
  %29 = getelementptr inbounds [32 x i32]* %28, i32 0, i64 %27, !dbg !14457 ; [#uses=1 type=i32*] [debug line = 340:13]
  %30 = load i32* %29, align 4, !dbg !14457       ; [#uses=1 type=i32] [debug line = 340:13]
  %31 = add nsw i32 %30, 1, !dbg !14457           ; [#uses=1 type=i32] [debug line = 340:13]
  %32 = load i32* %depth, align 4, !dbg !14457    ; [#uses=1 type=i32] [debug line = 340:13]
  %33 = sext i32 %32 to i64, !dbg !14457          ; [#uses=1 type=i64] [debug line = 340:13]
  %34 = getelementptr inbounds %class.RubikSolver* %4, i32 0, i32 13, !dbg !14457 ; [#uses=1 type=[32 x i32]*] [debug line = 340:13]
  %35 = getelementptr inbounds [32 x i32]* %34, i32 0, i64 %33, !dbg !14457 ; [#uses=1 type=i32*] [debug line = 340:13]
  %36 = load i32* %35, align 4, !dbg !14457       ; [#uses=1 type=i32] [debug line = 340:13]
  %37 = icmp sge i32 %31, %36, !dbg !14457        ; [#uses=1 type=i1] [debug line = 340:13]
  br i1 %37, label %38, label %45, !dbg !14457    ; [debug line = 340:13]

; <label>:38                                      ; preds = %25
  %39 = load i32* %depth, align 4, !dbg !14458    ; [#uses=1 type=i32] [debug line = 343:17]
  %40 = add nsw i32 %39, -1, !dbg !14458          ; [#uses=1 type=i32] [debug line = 343:17]
  store i32 %40, i32* %depth, align 4, !dbg !14458 ; [debug line = 343:17]
  %41 = load i32* %depth, align 4, !dbg !14460    ; [#uses=1 type=i32] [debug line = 344:17]
  %42 = icmp slt i32 %41, 0, !dbg !14460          ; [#uses=1 type=i1] [debug line = 344:17]
  br i1 %42, label %43, label %44, !dbg !14460    ; [debug line = 344:17]

; <label>:43                                      ; preds = %38
  store i32 0, i32* %1, !dbg !14461               ; [debug line = 345:21]
  br label %180, !dbg !14461                      ; [debug line = 345:21]

; <label>:44                                      ; preds = %38
  br label %25, !dbg !14462                       ; [debug line = 346:13]

; <label>:45                                      ; preds = %25
  %46 = load i32* %depth, align 4, !dbg !14463    ; [#uses=1 type=i32] [debug line = 347:13]
  %47 = icmp slt i32 %46, 0, !dbg !14463          ; [#uses=1 type=i1] [debug line = 347:13]
  br i1 %47, label %48, label %49, !dbg !14463    ; [debug line = 347:13]

; <label>:48                                      ; preds = %45
  store i32 0, i32* %1, !dbg !14464               ; [debug line = 348:17]
  br label %180, !dbg !14464                      ; [debug line = 348:17]

; <label>:49                                      ; preds = %45
  %50 = load i32* %depth, align 4, !dbg !14465    ; [#uses=1 type=i32] [debug line = 350:13]
  %51 = sext i32 %50 to i64, !dbg !14465          ; [#uses=1 type=i64] [debug line = 350:13]
  %52 = getelementptr inbounds %class.RubikSolver* %4, i32 0, i32 7, !dbg !14465 ; [#uses=1 type=[32 x i32]*] [debug line = 350:13]
  %53 = getelementptr inbounds [32 x i32]* %52, i32 0, i64 %51, !dbg !14465 ; [#uses=1 type=i32*] [debug line = 350:13]
  %54 = load i32* %53, align 4, !dbg !14465       ; [#uses=1 type=i32] [debug line = 350:13]
  %55 = add nsw i32 %54, 1, !dbg !14465           ; [#uses=1 type=i32] [debug line = 350:13]
  %56 = load i32* %depth, align 4, !dbg !14465    ; [#uses=1 type=i32] [debug line = 350:13]
  %57 = sext i32 %56 to i64, !dbg !14465          ; [#uses=1 type=i64] [debug line = 350:13]
  %58 = getelementptr inbounds %class.RubikSolver* %4, i32 0, i32 7, !dbg !14465 ; [#uses=1 type=[32 x i32]*] [debug line = 350:13]
  %59 = getelementptr inbounds [32 x i32]* %58, i32 0, i64 %57, !dbg !14465 ; [#uses=1 type=i32*] [debug line = 350:13]
  store i32 %55, i32* %59, align 4, !dbg !14465   ; [debug line = 350:13]
  %60 = load i32* %depth, align 4, !dbg !14466    ; [#uses=1 type=i32] [debug line = 351:13]
  %61 = sext i32 %60 to i64, !dbg !14466          ; [#uses=1 type=i64] [debug line = 351:13]
  %62 = getelementptr inbounds %class.RubikSolver* %4, i32 0, i32 7, !dbg !14466 ; [#uses=1 type=[32 x i32]*] [debug line = 351:13]
  %63 = getelementptr inbounds [32 x i32]* %62, i32 0, i64 %61, !dbg !14466 ; [#uses=1 type=i32*] [debug line = 351:13]
  %64 = load i32* %63, align 4, !dbg !14466       ; [#uses=1 type=i32] [debug line = 351:13]
  %65 = sext i32 %64 to i64, !dbg !14466          ; [#uses=1 type=i64] [debug line = 351:13]
  %66 = getelementptr inbounds %class.RubikSolver* %4, i32 0, i32 11, !dbg !14466 ; [#uses=1 type=[576 x i32]*] [debug line = 351:13]
  %67 = getelementptr inbounds [576 x i32]* %66, i32 0, i64 %65, !dbg !14466 ; [#uses=1 type=i32*] [debug line = 351:13]
  %68 = load i32* %67, align 4, !dbg !14466       ; [#uses=1 type=i32] [debug line = 351:13]
  %69 = load i32* %depth, align 4, !dbg !14466    ; [#uses=1 type=i32] [debug line = 351:13]
  %70 = sext i32 %69 to i64, !dbg !14466          ; [#uses=1 type=i64] [debug line = 351:13]
  %71 = getelementptr inbounds %class.RubikSolver* %4, i32 0, i32 15, !dbg !14466 ; [#uses=1 type=[32 x i32]*] [debug line = 351:13]
  %72 = getelementptr inbounds [32 x i32]* %71, i32 0, i64 %70, !dbg !14466 ; [#uses=1 type=i32*] [debug line = 351:13]
  store i32 %68, i32* %72, align 4, !dbg !14466   ; [debug line = 351:13]
  %73 = load i32* %depth, align 4, !dbg !14467    ; [#uses=1 type=i32] [debug line = 352:13]
  %74 = sext i32 %73 to i64, !dbg !14467          ; [#uses=1 type=i64] [debug line = 352:13]
  %75 = getelementptr inbounds %class.RubikSolver* %4, i32 0, i32 7, !dbg !14467 ; [#uses=1 type=[32 x i32]*] [debug line = 352:13]
  %76 = getelementptr inbounds [32 x i32]* %75, i32 0, i64 %74, !dbg !14467 ; [#uses=1 type=i32*] [debug line = 352:13]
  %77 = load i32* %76, align 4, !dbg !14467       ; [#uses=1 type=i32] [debug line = 352:13]
  %78 = sext i32 %77 to i64, !dbg !14467          ; [#uses=1 type=i64] [debug line = 352:13]
  %79 = getelementptr inbounds %class.RubikSolver* %4, i32 0, i32 9, !dbg !14467 ; [#uses=1 type=[576 x %class.RubikCube]*] [debug line = 352:13]
  %80 = getelementptr inbounds [576 x %class.RubikCube]* %79, i32 0, i64 %78, !dbg !14467 ; [#uses=1 type=%class.RubikCube*] [debug line = 352:13]
  %81 = call %class.RubikCube* @_ZN9RubikCubeaSERKS_(%class.RubikCube* %rubiksCube, %class.RubikCube* %80) nounwind, !dbg !14467 ; [#uses=0 type=%class.RubikCube*] [debug line = 352:13]
  %82 = load i32* %depth, align 4, !dbg !14468    ; [#uses=1 type=i32] [debug line = 353:13]
  %83 = add nsw i32 %82, 1, !dbg !14468           ; [#uses=1 type=i32] [debug line = 353:13]
  store i32 %83, i32* %depth, align 4, !dbg !14468 ; [debug line = 353:13]
  br label %179, !dbg !14469                      ; [debug line = 354:9]

; <label>:84                                      ; preds = %13
  %85 = load i32* %v, align 4, !dbg !14470        ; [#uses=1 type=i32] [debug line = 355:14]
  %86 = icmp eq i32 %85, 0, !dbg !14470           ; [#uses=1 type=i1] [debug line = 355:14]
  br i1 %86, label %87, label %147, !dbg !14470   ; [debug line = 355:14]

; <label>:87                                      ; preds = %84
  %88 = load i32* %depth, align 4, !dbg !14471    ; [#uses=1 type=i32] [debug line = 356:13]
  %89 = icmp eq i32 %88, 0, !dbg !14471           ; [#uses=1 type=i1] [debug line = 356:13]
  br i1 %89, label %90, label %108, !dbg !14471   ; [debug line = 356:13]

; <label>:90                                      ; preds = %87
  %91 = load i32* %depth, align 4, !dbg !14473    ; [#uses=1 type=i32] [debug line = 357:17]
  %92 = sext i32 %91 to i64, !dbg !14473          ; [#uses=1 type=i64] [debug line = 357:17]
  %93 = getelementptr inbounds %class.RubikSolver* %4, i32 0, i32 7, !dbg !14473 ; [#uses=1 type=[32 x i32]*] [debug line = 357:17]
  %94 = getelementptr inbounds [32 x i32]* %93, i32 0, i64 %92, !dbg !14473 ; [#uses=1 type=i32*] [debug line = 357:17]
  store i32 0, i32* %94, align 4, !dbg !14473     ; [debug line = 357:17]
  %95 = load i32* %depth, align 4, !dbg !14475    ; [#uses=1 type=i32] [debug line = 358:17]
  %96 = sext i32 %95 to i64, !dbg !14475          ; [#uses=1 type=i64] [debug line = 358:17]
  %97 = getelementptr inbounds %class.RubikSolver* %4, i32 0, i32 7, !dbg !14475 ; [#uses=1 type=[32 x i32]*] [debug line = 358:17]
  %98 = getelementptr inbounds [32 x i32]* %97, i32 0, i64 %96, !dbg !14475 ; [#uses=1 type=i32*] [debug line = 358:17]
  %99 = load i32* %98, align 4, !dbg !14475       ; [#uses=1 type=i32] [debug line = 358:17]
  %100 = sext i32 %99 to i64, !dbg !14475         ; [#uses=1 type=i64] [debug line = 358:17]
  %101 = getelementptr inbounds %class.RubikSolver* %4, i32 0, i32 11, !dbg !14475 ; [#uses=1 type=[576 x i32]*] [debug line = 358:17]
  %102 = getelementptr inbounds [576 x i32]* %101, i32 0, i64 %100, !dbg !14475 ; [#uses=1 type=i32*] [debug line = 358:17]
  %103 = load i32* %102, align 4, !dbg !14475     ; [#uses=1 type=i32] [debug line = 358:17]
  %104 = load i32* %depth, align 4, !dbg !14475   ; [#uses=1 type=i32] [debug line = 358:17]
  %105 = sext i32 %104 to i64, !dbg !14475        ; [#uses=1 type=i64] [debug line = 358:17]
  %106 = getelementptr inbounds %class.RubikSolver* %4, i32 0, i32 15, !dbg !14475 ; [#uses=1 type=[32 x i32]*] [debug line = 358:17]
  %107 = getelementptr inbounds [32 x i32]* %106, i32 0, i64 %105, !dbg !14475 ; [#uses=1 type=i32*] [debug line = 358:17]
  store i32 %103, i32* %107, align 4, !dbg !14475 ; [debug line = 358:17]
  br label %132, !dbg !14476                      ; [debug line = 359:13]

; <label>:108                                     ; preds = %87
  %109 = load i32* %depth, align 4, !dbg !14477   ; [#uses=1 type=i32] [debug line = 361:17]
  %110 = sub nsw i32 %109, 1, !dbg !14477         ; [#uses=1 type=i32] [debug line = 361:17]
  %111 = sext i32 %110 to i64, !dbg !14477        ; [#uses=1 type=i64] [debug line = 361:17]
  %112 = getelementptr inbounds %class.RubikSolver* %4, i32 0, i32 13, !dbg !14477 ; [#uses=1 type=[32 x i32]*] [debug line = 361:17]
  %113 = getelementptr inbounds [32 x i32]* %112, i32 0, i64 %111, !dbg !14477 ; [#uses=1 type=i32*] [debug line = 361:17]
  %114 = load i32* %113, align 4, !dbg !14477     ; [#uses=1 type=i32] [debug line = 361:17]
  %115 = load i32* %depth, align 4, !dbg !14477   ; [#uses=1 type=i32] [debug line = 361:17]
  %116 = sext i32 %115 to i64, !dbg !14477        ; [#uses=1 type=i64] [debug line = 361:17]
  %117 = getelementptr inbounds %class.RubikSolver* %4, i32 0, i32 7, !dbg !14477 ; [#uses=1 type=[32 x i32]*] [debug line = 361:17]
  %118 = getelementptr inbounds [32 x i32]* %117, i32 0, i64 %116, !dbg !14477 ; [#uses=1 type=i32*] [debug line = 361:17]
  store i32 %114, i32* %118, align 4, !dbg !14477 ; [debug line = 361:17]
  %119 = load i32* %depth, align 4, !dbg !14479   ; [#uses=1 type=i32] [debug line = 362:17]
  %120 = sext i32 %119 to i64, !dbg !14479        ; [#uses=1 type=i64] [debug line = 362:17]
  %121 = getelementptr inbounds %class.RubikSolver* %4, i32 0, i32 7, !dbg !14479 ; [#uses=1 type=[32 x i32]*] [debug line = 362:17]
  %122 = getelementptr inbounds [32 x i32]* %121, i32 0, i64 %120, !dbg !14479 ; [#uses=1 type=i32*] [debug line = 362:17]
  %123 = load i32* %122, align 4, !dbg !14479     ; [#uses=1 type=i32] [debug line = 362:17]
  %124 = sext i32 %123 to i64, !dbg !14479        ; [#uses=1 type=i64] [debug line = 362:17]
  %125 = getelementptr inbounds %class.RubikSolver* %4, i32 0, i32 11, !dbg !14479 ; [#uses=1 type=[576 x i32]*] [debug line = 362:17]
  %126 = getelementptr inbounds [576 x i32]* %125, i32 0, i64 %124, !dbg !14479 ; [#uses=1 type=i32*] [debug line = 362:17]
  %127 = load i32* %126, align 4, !dbg !14479     ; [#uses=1 type=i32] [debug line = 362:17]
  %128 = load i32* %depth, align 4, !dbg !14479   ; [#uses=1 type=i32] [debug line = 362:17]
  %129 = sext i32 %128 to i64, !dbg !14479        ; [#uses=1 type=i64] [debug line = 362:17]
  %130 = getelementptr inbounds %class.RubikSolver* %4, i32 0, i32 15, !dbg !14479 ; [#uses=1 type=[32 x i32]*] [debug line = 362:17]
  %131 = getelementptr inbounds [32 x i32]* %130, i32 0, i64 %129, !dbg !14479 ; [#uses=1 type=i32*] [debug line = 362:17]
  store i32 %127, i32* %131, align 4, !dbg !14479 ; [debug line = 362:17]
  br label %132

; <label>:132                                     ; preds = %108, %90
  %133 = load i32* %depth, align 4, !dbg !14480   ; [#uses=1 type=i32] [debug line = 364:13]
  %134 = sext i32 %133 to i64, !dbg !14480        ; [#uses=1 type=i64] [debug line = 364:13]
  %135 = getelementptr inbounds %class.RubikSolver* %4, i32 0, i32 7, !dbg !14480 ; [#uses=1 type=[32 x i32]*] [debug line = 364:13]
  %136 = getelementptr inbounds [32 x i32]* %135, i32 0, i64 %134, !dbg !14480 ; [#uses=1 type=i32*] [debug line = 364:13]
  %137 = load i32* %136, align 4, !dbg !14480     ; [#uses=1 type=i32] [debug line = 364:13]
  %138 = sext i32 %137 to i64, !dbg !14480        ; [#uses=1 type=i64] [debug line = 364:13]
  %139 = getelementptr inbounds %class.RubikSolver* %4, i32 0, i32 9, !dbg !14480 ; [#uses=1 type=[576 x %class.RubikCube]*] [debug line = 364:13]
  %140 = getelementptr inbounds [576 x %class.RubikCube]* %139, i32 0, i64 %138, !dbg !14480 ; [#uses=1 type=%class.RubikCube*] [debug line = 364:13]
  %141 = call %class.RubikCube* @_ZN9RubikCubeaSERKS_(%class.RubikCube* %rubiksCube, %class.RubikCube* %140) nounwind, !dbg !14480 ; [#uses=0 type=%class.RubikCube*] [debug line = 364:13]
  %142 = getelementptr inbounds %class.RubikSolver* %4, i32 0, i32 1, !dbg !14481 ; [#uses=2 type=i32*] [debug line = 365:13]
  %143 = load i32* %142, align 4, !dbg !14481     ; [#uses=1 type=i32] [debug line = 365:13]
  %144 = add nsw i32 %143, 1, !dbg !14481         ; [#uses=1 type=i32] [debug line = 365:13]
  store i32 %144, i32* %142, align 4, !dbg !14481 ; [debug line = 365:13]
  %145 = load i32* %depth, align 4, !dbg !14482   ; [#uses=1 type=i32] [debug line = 366:13]
  %146 = add nsw i32 %145, 1, !dbg !14482         ; [#uses=1 type=i32] [debug line = 366:13]
  store i32 %146, i32* %depth, align 4, !dbg !14482 ; [debug line = 366:13]
  br label %178, !dbg !14483                      ; [debug line = 367:9]

; <label>:147                                     ; preds = %84
  %148 = load i32* %v, align 4, !dbg !14484       ; [#uses=1 type=i32] [debug line = 368:14]
  %149 = icmp eq i32 %148, 1, !dbg !14484         ; [#uses=1 type=i1] [debug line = 368:14]
  br i1 %149, label %150, label %177, !dbg !14484 ; [debug line = 368:14]

; <label>:150                                     ; preds = %147
  %151 = load i32* %depth, align 4, !dbg !14485   ; [#uses=1 type=i32] [debug line = 369:13]
  %152 = sext i32 %151 to i64, !dbg !14485        ; [#uses=1 type=i64] [debug line = 369:13]
  %153 = getelementptr inbounds %class.RubikSolver* %4, i32 0, i32 13, !dbg !14485 ; [#uses=1 type=[32 x i32]*] [debug line = 369:13]
  %154 = getelementptr inbounds [32 x i32]* %153, i32 0, i64 %152, !dbg !14485 ; [#uses=1 type=i32*] [debug line = 369:13]
  %155 = load i32* %154, align 4, !dbg !14485     ; [#uses=1 type=i32] [debug line = 369:13]
  %156 = sub nsw i32 %155, 1, !dbg !14485         ; [#uses=1 type=i32] [debug line = 369:13]
  %157 = load i32* %depth, align 4, !dbg !14485   ; [#uses=1 type=i32] [debug line = 369:13]
  %158 = sext i32 %157 to i64, !dbg !14485        ; [#uses=1 type=i64] [debug line = 369:13]
  %159 = getelementptr inbounds %class.RubikSolver* %4, i32 0, i32 7, !dbg !14485 ; [#uses=1 type=[32 x i32]*] [debug line = 369:13]
  %160 = getelementptr inbounds [32 x i32]* %159, i32 0, i64 %158, !dbg !14485 ; [#uses=1 type=i32*] [debug line = 369:13]
  store i32 %156, i32* %160, align 4, !dbg !14485 ; [debug line = 369:13]
  %161 = load i32* %depth, align 4, !dbg !14487   ; [#uses=1 type=i32] [debug line = 370:13]
  %162 = sext i32 %161 to i64, !dbg !14487        ; [#uses=1 type=i64] [debug line = 370:13]
  %163 = getelementptr inbounds %class.RubikSolver* %4, i32 0, i32 7, !dbg !14487 ; [#uses=1 type=[32 x i32]*] [debug line = 370:13]
  %164 = getelementptr inbounds [32 x i32]* %163, i32 0, i64 %162, !dbg !14487 ; [#uses=1 type=i32*] [debug line = 370:13]
  %165 = load i32* %164, align 4, !dbg !14487     ; [#uses=1 type=i32] [debug line = 370:13]
  %166 = sext i32 %165 to i64, !dbg !14487        ; [#uses=1 type=i64] [debug line = 370:13]
  %167 = getelementptr inbounds %class.RubikSolver* %4, i32 0, i32 11, !dbg !14487 ; [#uses=1 type=[576 x i32]*] [debug line = 370:13]
  %168 = getelementptr inbounds [576 x i32]* %167, i32 0, i64 %166, !dbg !14487 ; [#uses=1 type=i32*] [debug line = 370:13]
  %169 = load i32* %168, align 4, !dbg !14487     ; [#uses=1 type=i32] [debug line = 370:13]
  %170 = load i32* %depth, align 4, !dbg !14487   ; [#uses=1 type=i32] [debug line = 370:13]
  %171 = sext i32 %170 to i64, !dbg !14487        ; [#uses=1 type=i64] [debug line = 370:13]
  %172 = getelementptr inbounds %class.RubikSolver* %4, i32 0, i32 15, !dbg !14487 ; [#uses=1 type=[32 x i32]*] [debug line = 370:13]
  %173 = getelementptr inbounds [32 x i32]* %172, i32 0, i64 %171, !dbg !14487 ; [#uses=1 type=i32*] [debug line = 370:13]
  store i32 %169, i32* %173, align 4, !dbg !14487 ; [debug line = 370:13]
  %174 = load i32* %depth, align 4, !dbg !14488   ; [#uses=1 type=i32] [debug line = 371:13]
  %175 = add nsw i32 %174, 1, !dbg !14488         ; [#uses=1 type=i32] [debug line = 371:13]
  %176 = getelementptr inbounds %class.RubikSolver* %4, i32 0, i32 17, !dbg !14488 ; [#uses=1 type=i32*] [debug line = 371:13]
  store i32 %175, i32* %176, align 4, !dbg !14488 ; [debug line = 371:13]
  store i32 1, i32* %1, !dbg !14489               ; [debug line = 372:13]
  br label %180, !dbg !14489                      ; [debug line = 372:13]

; <label>:177                                     ; preds = %147
  br label %178

; <label>:178                                     ; preds = %177, %132
  br label %179

; <label>:179                                     ; preds = %178, %49
  br label %5, !dbg !14490                        ; [debug line = 374:5]

; <label>:180                                     ; preds = %150, %48, %43, %23, %11
  %181 = load i32* %1, !dbg !14491                ; [#uses=1 type=i32] [debug line = 375:1]
  ret i32 %181, !dbg !14491                       ; [debug line = 375:1]
}

; [#uses=1]
define i32 @_ZN11RubikSolver17generateChildren2E9RubikCubei(%class.RubikSolver* %this, %class.RubikCube* %rubiksCube, i32 %depth) nounwind uwtable align 2 {
  %1 = alloca i32, align 4                        ; [#uses=4 type=i32*]
  %2 = alloca %class.RubikSolver*, align 8        ; [#uses=2 type=%class.RubikSolver**]
  %3 = alloca i32, align 4                        ; [#uses=15 type=i32*]
  %children = alloca [18 x %class.RubikCube], align 16 ; [#uses=5 type=[18 x %class.RubikCube]*]
  %labels = alloca [18 x i32], align 16           ; [#uses=2 type=[18 x i32]*]
  %i = alloca i32, align 4                        ; [#uses=5 type=i32*]
  %cntValid = alloca i32, align 4                 ; [#uses=10 type=i32*]
  %rightL = alloca [10 x i32], align 16           ; [#uses=2 type=[10 x i32]*]
  %move = alloca i32, align 4                     ; [#uses=4 type=i32*]
  %j = alloca i32, align 4                        ; [#uses=7 type=i32*]
  %rightIndex = alloca i32, align 4               ; [#uses=4 type=i32*]
  %currentCube = alloca %class.RubikCube, align 8 ; [#uses=6 type=%class.RubikCube*]
  %cost = alloca i32, align 4                     ; [#uses=5 type=i32*]
  %4 = alloca i32                                 ; [#uses=6 type=i32*]
  %startingPoint = alloca i32, align 4            ; [#uses=4 type=i32*]
  store %class.RubikSolver* %this, %class.RubikSolver** %2, align 8
  call void @llvm.dbg.declare(metadata !{%class.RubikSolver** %2}, metadata !14492), !dbg !14493 ; [debug line = 377:18] [debug variable = this]
  call void @llvm.dbg.declare(metadata !{%class.RubikCube* %rubiksCube}, metadata !14494), !dbg !14495 ; [debug line = 377:46] [debug variable = rubiksCube]
  store i32 %depth, i32* %3, align 4
  call void @llvm.dbg.declare(metadata !{i32* %3}, metadata !14496), !dbg !14497 ; [debug line = 377:62] [debug variable = depth]
  %5 = load %class.RubikSolver** %2               ; [#uses=15 type=%class.RubikSolver*]
  call void @llvm.dbg.declare(metadata !{[18 x %class.RubikCube]* %children}, metadata !14498), !dbg !14500 ; [debug line = 379:15] [debug variable = children]
  %6 = getelementptr inbounds [18 x %class.RubikCube]* %children, i32 0, i32 0, !dbg !14501 ; [#uses=0 type=%class.RubikCube*] [debug line = 379:43]
  br label %arrayctor.loop

arrayctor.loop:                                   ; preds = %arrayctor.loop, %0
  %7 = phi i32 [ 0, %0 ], [ %8, %arrayctor.loop ], !dbg !14501 ; [#uses=3 type=i32] [debug line = 379:43]
  %8 = add i32 %7, 1, !dbg !14501                 ; [#uses=1 type=i32] [debug line = 379:43]
  %9 = getelementptr inbounds [18 x %class.RubikCube]* %children, i32 0, i32 %7, !dbg !14501 ; [#uses=1 type=%class.RubikCube*] [debug line = 379:43]
  call void @_ZN9RubikCubeC1Ev(%class.RubikCube* %9), !dbg !14501 ; [debug line = 379:43]
  %10 = icmp eq i32 %7, 17, !dbg !14501           ; [#uses=1 type=i1] [debug line = 379:43]
  br i1 %10, label %11, label %arrayctor.loop, !dbg !14501 ; [debug line = 379:43]

; <label>:11                                      ; preds = %arrayctor.loop
  br label %12, !dbg !14501                       ; [debug line = 379:43]

; <label>:12                                      ; preds = %11
  %13 = getelementptr inbounds [18 x %class.RubikCube]* %children, i32 0, i32 0, !dbg !14502 ; [#uses=1 type=%class.RubikCube*] [debug line = 380:5]
  call void @_ZN9RubikCube11getChildrenEPS_(%class.RubikCube* %rubiksCube, %class.RubikCube* %13), !dbg !14502 ; [debug line = 380:5]
  call void @llvm.dbg.declare(metadata !{[18 x i32]* %labels}, metadata !14503), !dbg !14504 ; [debug line = 381:9] [debug variable = labels]
  %14 = getelementptr inbounds [18 x i32]* %labels, i32 0, i32 0, !dbg !14505 ; [#uses=1 type=i32*] [debug line = 382:5]
  call void @_ZN9RubikCube16getChildrenLabelEPi(%class.RubikCube* %rubiksCube, i32* %14), !dbg !14505 ; [debug line = 382:5]
  call void @llvm.dbg.declare(metadata !{i32* %i}, metadata !14506), !dbg !14507 ; [debug line = 383:9] [debug variable = i]
  call void @llvm.dbg.declare(metadata !{i32* %cntValid}, metadata !14508), !dbg !14509 ; [debug line = 384:9] [debug variable = cntValid]
  store i32 0, i32* %cntValid, align 4, !dbg !14510 ; [debug line = 384:21]
  call void @llvm.dbg.declare(metadata !{[10 x i32]* %rightL}, metadata !14511), !dbg !14515 ; [debug line = 385:9] [debug variable = rightL]
  %15 = bitcast [10 x i32]* %rightL to i8*, !dbg !14516 ; [#uses=1 type=i8*] [debug line = 385:121]
  call void @llvm.memcpy.p0i8.p0i8.i64(i8* %15, i8* bitcast ([10 x i32]* @_ZZN11RubikSolver17generateChildren2E9RubikCubeiE6rightL to i8*), i64 40, i32 16, i1 false), !dbg !14516 ; [debug line = 385:121]
  store i32 0, i32* %i, align 4, !dbg !14517      ; [debug line = 387:10]
  br label %16, !dbg !14517                       ; [debug line = 387:10]

; <label>:16                                      ; preds = %139, %12
  %17 = load i32* %i, align 4, !dbg !14517        ; [#uses=1 type=i32] [debug line = 387:10]
  %18 = icmp slt i32 %17, 10, !dbg !14517         ; [#uses=1 type=i1] [debug line = 387:10]
  br i1 %18, label %19, label %142, !dbg !14517   ; [debug line = 387:10]

; <label>:19                                      ; preds = %16
  call void @llvm.dbg.declare(metadata !{i32* %move}, metadata !14519), !dbg !14521 ; [debug line = 390:13] [debug variable = move]
  %20 = load i32* %i, align 4, !dbg !14522        ; [#uses=1 type=i32] [debug line = 390:29]
  %21 = sext i32 %20 to i64, !dbg !14522          ; [#uses=1 type=i64] [debug line = 390:29]
  %22 = getelementptr inbounds [10 x i32]* %rightL, i32 0, i64 %21, !dbg !14522 ; [#uses=1 type=i32*] [debug line = 390:29]
  %23 = load i32* %22, align 4, !dbg !14522       ; [#uses=1 type=i32] [debug line = 390:29]
  store i32 %23, i32* %move, align 4, !dbg !14522 ; [debug line = 390:29]
  %24 = load i32* %move, align 4, !dbg !14523     ; [#uses=1 type=i32] [debug line = 391:13]
  %25 = getelementptr inbounds %class.RubikSolver* %5, i32 0, i32 15, !dbg !14523 ; [#uses=1 type=[32 x i32]*] [debug line = 391:13]
  %26 = getelementptr inbounds [32 x i32]* %25, i32 0, i32 0, !dbg !14523 ; [#uses=1 type=i32*] [debug line = 391:13]
  %27 = load i32* %3, align 4, !dbg !14523        ; [#uses=1 type=i32] [debug line = 391:13]
  %28 = call i32 @_ZN11RubikSolver11isRedundantEiPii(%class.RubikSolver* %5, i32 %24, i32* %26, i32 %27), !dbg !14523 ; [#uses=1 type=i32] [debug line = 391:13]
  %29 = icmp ne i32 %28, 0, !dbg !14523           ; [#uses=1 type=i1] [debug line = 391:13]
  br i1 %29, label %30, label %31, !dbg !14523    ; [debug line = 391:13]

; <label>:30                                      ; preds = %19
  br label %139, !dbg !14524                      ; [debug line = 391:54]

; <label>:31                                      ; preds = %19
  call void @llvm.dbg.declare(metadata !{i32* %j}, metadata !14525), !dbg !14526 ; [debug line = 394:13] [debug variable = j]
  store i32 0, i32* %j, align 4, !dbg !14527      ; [debug line = 394:18]
  call void @llvm.dbg.declare(metadata !{i32* %rightIndex}, metadata !14528), !dbg !14529 ; [debug line = 395:13] [debug variable = rightIndex]
  store i32 -1, i32* %rightIndex, align 4, !dbg !14530 ; [debug line = 395:28]
  store i32 0, i32* %j, align 4, !dbg !14531      ; [debug line = 396:14]
  br label %32, !dbg !14531                       ; [debug line = 396:14]

; <label>:32                                      ; preds = %45, %31
  %33 = load i32* %j, align 4, !dbg !14531        ; [#uses=1 type=i32] [debug line = 396:14]
  %34 = icmp slt i32 %33, 18, !dbg !14531         ; [#uses=1 type=i1] [debug line = 396:14]
  br i1 %34, label %35, label %48, !dbg !14531    ; [debug line = 396:14]

; <label>:35                                      ; preds = %32
  %36 = load i32* %j, align 4, !dbg !14533        ; [#uses=1 type=i32] [debug line = 397:13]
  %37 = sext i32 %36 to i64, !dbg !14533          ; [#uses=1 type=i64] [debug line = 397:13]
  %38 = getelementptr inbounds [18 x i32]* %labels, i32 0, i64 %37, !dbg !14533 ; [#uses=1 type=i32*] [debug line = 397:13]
  %39 = load i32* %38, align 4, !dbg !14533       ; [#uses=1 type=i32] [debug line = 397:13]
  %40 = load i32* %move, align 4, !dbg !14533     ; [#uses=1 type=i32] [debug line = 397:13]
  %41 = icmp eq i32 %39, %40, !dbg !14533         ; [#uses=1 type=i1] [debug line = 397:13]
  br i1 %41, label %42, label %44, !dbg !14533    ; [debug line = 397:13]

; <label>:42                                      ; preds = %35
  %43 = load i32* %j, align 4, !dbg !14535        ; [#uses=1 type=i32] [debug line = 398:17]
  store i32 %43, i32* %rightIndex, align 4, !dbg !14535 ; [debug line = 398:17]
  br label %48, !dbg !14537                       ; [debug line = 399:17]

; <label>:44                                      ; preds = %35
  br label %45, !dbg !14538                       ; [debug line = 401:9]

; <label>:45                                      ; preds = %44
  %46 = load i32* %j, align 4, !dbg !14539        ; [#uses=1 type=i32] [debug line = 396:39]
  %47 = add nsw i32 %46, 1, !dbg !14539           ; [#uses=1 type=i32] [debug line = 396:39]
  store i32 %47, i32* %j, align 4, !dbg !14539    ; [debug line = 396:39]
  br label %32, !dbg !14539                       ; [debug line = 396:39]

; <label>:48                                      ; preds = %42, %32
  %49 = load i32* %rightIndex, align 4, !dbg !14540 ; [#uses=1 type=i32] [debug line = 402:9]
  %50 = icmp eq i32 %49, -1, !dbg !14540          ; [#uses=1 type=i1] [debug line = 402:9]
  br i1 %50, label %51, label %53, !dbg !14540    ; [debug line = 402:9]

; <label>:51                                      ; preds = %48
  %52 = call %"class.std::basic_ostream"* @_ZStlsISt11char_traitsIcEERSt13basic_ostreamIcT_ES5_PKc(%"class.std::basic_ostream"* @_ZSt4cout, i8* getelementptr inbounds ([9 x i8]* @.str17, i32 0, i32 0)), !dbg !14541 ; [#uses=0 type=%"class.std::basic_ostream"*] [debug line = 404:13]
  br label %53, !dbg !14543                       ; [debug line = 405:9]

; <label>:53                                      ; preds = %51, %48
  call void @llvm.dbg.declare(metadata !{%class.RubikCube* %currentCube}, metadata !14544), !dbg !14545 ; [debug line = 407:19] [debug variable = currentCube]
  %54 = load i32* %rightIndex, align 4, !dbg !14546 ; [#uses=1 type=i32] [debug line = 407:53]
  %55 = sext i32 %54 to i64, !dbg !14546          ; [#uses=1 type=i64] [debug line = 407:53]
  %56 = getelementptr inbounds [18 x %class.RubikCube]* %children, i32 0, i64 %55, !dbg !14546 ; [#uses=1 type=%class.RubikCube*] [debug line = 407:53]
  call void @_ZN9RubikCubeC1ERKS_(%class.RubikCube* %currentCube, %class.RubikCube* %56) nounwind, !dbg !14546 ; [debug line = 407:53]
  call void @llvm.dbg.declare(metadata !{i32* %cost}, metadata !14547), !dbg !14548 ; [debug line = 408:13] [debug variable = cost]
  %57 = call i32 @_ZN9RubikCube20getCornerPermutationEv(%class.RubikCube* %currentCube), !dbg !14549 ; [#uses=1 type=i32] [debug line = 408:31]
  %58 = call i32 @_ZN9RubikCube27getNotMiddleEdgePermutationEv(%class.RubikCube* %currentCube), !dbg !14550 ; [#uses=1 type=i32] [debug line = 408:67]
  %59 = call i32 @_ZN9RubikCube24getMiddleEdgePermutationEv(%class.RubikCube* %currentCube), !dbg !14551 ; [#uses=1 type=i32] [debug line = 408:110]
  %60 = call i32 @_ZN11RubikSolver10phase2CostEiii(%class.RubikSolver* %5, i32 %57, i32 %58, i32 %59), !dbg !14551 ; [#uses=1 type=i32] [debug line = 408:110]
  store i32 %60, i32* %cost, align 4, !dbg !14551 ; [debug line = 408:110]
  %61 = load i32* %3, align 4, !dbg !14552        ; [#uses=1 type=i32] [debug line = 410:9]
  %62 = load i32* %cost, align 4, !dbg !14552     ; [#uses=1 type=i32] [debug line = 410:9]
  %63 = add nsw i32 %61, %62, !dbg !14552         ; [#uses=1 type=i32] [debug line = 410:9]
  %64 = add nsw i32 %63, 1, !dbg !14552           ; [#uses=1 type=i32] [debug line = 410:9]
  %65 = getelementptr inbounds %class.RubikSolver* %5, i32 0, i32 3, !dbg !14552 ; [#uses=1 type=i32*] [debug line = 410:9]
  %66 = load i32* %65, align 4, !dbg !14552       ; [#uses=1 type=i32] [debug line = 410:9]
  %67 = icmp sgt i32 %64, %66, !dbg !14552        ; [#uses=1 type=i1] [debug line = 410:9]
  br i1 %67, label %68, label %83, !dbg !14552    ; [debug line = 410:9]

; <label>:68                                      ; preds = %53
  %69 = load i32* %3, align 4, !dbg !14553        ; [#uses=1 type=i32] [debug line = 411:13]
  %70 = load i32* %cost, align 4, !dbg !14553     ; [#uses=1 type=i32] [debug line = 411:13]
  %71 = add nsw i32 %69, %70, !dbg !14553         ; [#uses=1 type=i32] [debug line = 411:13]
  %72 = add nsw i32 %71, 1, !dbg !14553           ; [#uses=1 type=i32] [debug line = 411:13]
  %73 = getelementptr inbounds %class.RubikSolver* %5, i32 0, i32 5, !dbg !14553 ; [#uses=1 type=i32*] [debug line = 411:13]
  %74 = load i32* %73, align 4, !dbg !14553       ; [#uses=1 type=i32] [debug line = 411:13]
  %75 = icmp slt i32 %72, %74, !dbg !14553        ; [#uses=1 type=i1] [debug line = 411:13]
  br i1 %75, label %76, label %82, !dbg !14553    ; [debug line = 411:13]

; <label>:76                                      ; preds = %68
  %77 = load i32* %3, align 4, !dbg !14555        ; [#uses=1 type=i32] [debug line = 412:17]
  %78 = load i32* %cost, align 4, !dbg !14555     ; [#uses=1 type=i32] [debug line = 412:17]
  %79 = add nsw i32 %77, %78, !dbg !14555         ; [#uses=1 type=i32] [debug line = 412:17]
  %80 = add nsw i32 %79, 1, !dbg !14555           ; [#uses=1 type=i32] [debug line = 412:17]
  %81 = getelementptr inbounds %class.RubikSolver* %5, i32 0, i32 5, !dbg !14555 ; [#uses=1 type=i32*] [debug line = 412:17]
  store i32 %80, i32* %81, align 4, !dbg !14555   ; [debug line = 412:17]
  br label %82, !dbg !14557                       ; [debug line = 413:13]

; <label>:82                                      ; preds = %76, %68
  store i32 4, i32* %4
  br label %137, !dbg !14558                      ; [debug line = 414:13]

; <label>:83                                      ; preds = %53
  call void @llvm.dbg.declare(metadata !{i32* %startingPoint}, metadata !14559), !dbg !14560 ; [debug line = 418:13] [debug variable = startingPoint]
  store i32 0, i32* %startingPoint, align 4, !dbg !14561 ; [debug line = 418:30]
  %84 = load i32* %3, align 4, !dbg !14562        ; [#uses=1 type=i32] [debug line = 419:9]
  %85 = icmp ne i32 %84, 0, !dbg !14562           ; [#uses=1 type=i1] [debug line = 419:9]
  br i1 %85, label %86, label %93, !dbg !14562    ; [debug line = 419:9]

; <label>:86                                      ; preds = %83
  %87 = load i32* %3, align 4, !dbg !14563        ; [#uses=1 type=i32] [debug line = 420:13]
  %88 = sub nsw i32 %87, 1, !dbg !14563           ; [#uses=1 type=i32] [debug line = 420:13]
  %89 = sext i32 %88 to i64, !dbg !14563          ; [#uses=1 type=i64] [debug line = 420:13]
  %90 = getelementptr inbounds %class.RubikSolver* %5, i32 0, i32 13, !dbg !14563 ; [#uses=1 type=[32 x i32]*] [debug line = 420:13]
  %91 = getelementptr inbounds [32 x i32]* %90, i32 0, i64 %89, !dbg !14563 ; [#uses=1 type=i32*] [debug line = 420:13]
  %92 = load i32* %91, align 4, !dbg !14563       ; [#uses=1 type=i32] [debug line = 420:13]
  store i32 %92, i32* %startingPoint, align 4, !dbg !14563 ; [debug line = 420:13]
  br label %93, !dbg !14565                       ; [debug line = 421:9]

; <label>:93                                      ; preds = %86, %83
  %94 = load i32* %startingPoint, align 4, !dbg !14566 ; [#uses=1 type=i32] [debug line = 422:9]
  %95 = load i32* %cntValid, align 4, !dbg !14566 ; [#uses=1 type=i32] [debug line = 422:9]
  %96 = add nsw i32 %94, %95, !dbg !14566         ; [#uses=1 type=i32] [debug line = 422:9]
  %97 = sext i32 %96 to i64, !dbg !14566          ; [#uses=1 type=i64] [debug line = 422:9]
  %98 = getelementptr inbounds %class.RubikSolver* %5, i32 0, i32 9, !dbg !14566 ; [#uses=1 type=[576 x %class.RubikCube]*] [debug line = 422:9]
  %99 = getelementptr inbounds [576 x %class.RubikCube]* %98, i32 0, i64 %97, !dbg !14566 ; [#uses=1 type=%class.RubikCube*] [debug line = 422:9]
  %100 = call %class.RubikCube* @_ZN9RubikCubeaSERKS_(%class.RubikCube* %99, %class.RubikCube* %currentCube) nounwind, !dbg !14566 ; [#uses=0 type=%class.RubikCube*] [debug line = 422:9]
  %101 = load i32* %move, align 4, !dbg !14567    ; [#uses=1 type=i32] [debug line = 423:9]
  %102 = load i32* %startingPoint, align 4, !dbg !14567 ; [#uses=1 type=i32] [debug line = 423:9]
  %103 = load i32* %cntValid, align 4, !dbg !14567 ; [#uses=1 type=i32] [debug line = 423:9]
  %104 = add nsw i32 %102, %103, !dbg !14567      ; [#uses=1 type=i32] [debug line = 423:9]
  %105 = sext i32 %104 to i64, !dbg !14567        ; [#uses=1 type=i64] [debug line = 423:9]
  %106 = getelementptr inbounds %class.RubikSolver* %5, i32 0, i32 11, !dbg !14567 ; [#uses=1 type=[576 x i32]*] [debug line = 423:9]
  %107 = getelementptr inbounds [576 x i32]* %106, i32 0, i64 %105, !dbg !14567 ; [#uses=1 type=i32*] [debug line = 423:9]
  store i32 %101, i32* %107, align 4, !dbg !14567 ; [debug line = 423:9]
  %108 = load i32* %cntValid, align 4, !dbg !14568 ; [#uses=1 type=i32] [debug line = 424:9]
  %109 = add nsw i32 %108, 1, !dbg !14568         ; [#uses=1 type=i32] [debug line = 424:9]
  store i32 %109, i32* %cntValid, align 4, !dbg !14568 ; [debug line = 424:9]
  %110 = load i32* %cost, align 4, !dbg !14569    ; [#uses=1 type=i32] [debug line = 425:9]
  %111 = icmp eq i32 %110, 0, !dbg !14569         ; [#uses=1 type=i1] [debug line = 425:9]
  br i1 %111, label %112, label %136, !dbg !14569 ; [debug line = 425:9]

; <label>:112                                     ; preds = %93
  %113 = load i32* %3, align 4, !dbg !14570       ; [#uses=1 type=i32] [debug line = 427:13]
  %114 = icmp sgt i32 %113, 0, !dbg !14570        ; [#uses=1 type=i1] [debug line = 427:13]
  br i1 %114, label %115, label %128, !dbg !14570 ; [debug line = 427:13]

; <label>:115                                     ; preds = %112
  %116 = load i32* %cntValid, align 4, !dbg !14572 ; [#uses=1 type=i32] [debug line = 428:17]
  %117 = load i32* %3, align 4, !dbg !14572       ; [#uses=1 type=i32] [debug line = 428:17]
  %118 = sub nsw i32 %117, 1, !dbg !14572         ; [#uses=1 type=i32] [debug line = 428:17]
  %119 = sext i32 %118 to i64, !dbg !14572        ; [#uses=1 type=i64] [debug line = 428:17]
  %120 = getelementptr inbounds %class.RubikSolver* %5, i32 0, i32 13, !dbg !14572 ; [#uses=1 type=[32 x i32]*] [debug line = 428:17]
  %121 = getelementptr inbounds [32 x i32]* %120, i32 0, i64 %119, !dbg !14572 ; [#uses=1 type=i32*] [debug line = 428:17]
  %122 = load i32* %121, align 4, !dbg !14572     ; [#uses=1 type=i32] [debug line = 428:17]
  %123 = add nsw i32 %116, %122, !dbg !14572      ; [#uses=1 type=i32] [debug line = 428:17]
  %124 = load i32* %3, align 4, !dbg !14572       ; [#uses=1 type=i32] [debug line = 428:17]
  %125 = sext i32 %124 to i64, !dbg !14572        ; [#uses=1 type=i64] [debug line = 428:17]
  %126 = getelementptr inbounds %class.RubikSolver* %5, i32 0, i32 13, !dbg !14572 ; [#uses=1 type=[32 x i32]*] [debug line = 428:17]
  %127 = getelementptr inbounds [32 x i32]* %126, i32 0, i64 %125, !dbg !14572 ; [#uses=1 type=i32*] [debug line = 428:17]
  store i32 %123, i32* %127, align 4, !dbg !14572 ; [debug line = 428:17]
  br label %135, !dbg !14572                      ; [debug line = 428:17]

; <label>:128                                     ; preds = %112
  %129 = load i32* %cntValid, align 4, !dbg !14573 ; [#uses=1 type=i32] [debug line = 430:17]
  %130 = add nsw i32 %129, 1, !dbg !14573         ; [#uses=1 type=i32] [debug line = 430:17]
  %131 = load i32* %3, align 4, !dbg !14573       ; [#uses=1 type=i32] [debug line = 430:17]
  %132 = sext i32 %131 to i64, !dbg !14573        ; [#uses=1 type=i64] [debug line = 430:17]
  %133 = getelementptr inbounds %class.RubikSolver* %5, i32 0, i32 13, !dbg !14573 ; [#uses=1 type=[32 x i32]*] [debug line = 430:17]
  %134 = getelementptr inbounds [32 x i32]* %133, i32 0, i64 %132, !dbg !14573 ; [#uses=1 type=i32*] [debug line = 430:17]
  store i32 %130, i32* %134, align 4, !dbg !14573 ; [debug line = 430:17]
  br label %135

; <label>:135                                     ; preds = %128, %115
  store i32 1, i32* %1, !dbg !14574               ; [debug line = 431:13]
  store i32 1, i32* %4
  br label %137, !dbg !14574                      ; [debug line = 431:13]

; <label>:136                                     ; preds = %93
  store i32 0, i32* %4, !dbg !14575               ; [debug line = 433:5]
  br label %137, !dbg !14575                      ; [debug line = 433:5]

; <label>:137                                     ; preds = %136, %135, %82
  call void @_ZN9RubikCubeD1Ev(%class.RubikCube* %currentCube), !dbg !14575 ; [debug line = 433:5]
  %cleanup.dest = load i32* %4                    ; [#uses=1 type=i32]
  switch i32 %cleanup.dest, label %169 [
    i32 0, label %138
    i32 4, label %139
  ]

; <label>:138                                     ; preds = %137
  br label %139, !dbg !14575                      ; [debug line = 433:5]

; <label>:139                                     ; preds = %138, %137, %30
  %140 = load i32* %i, align 4, !dbg !14576       ; [#uses=1 type=i32] [debug line = 387:23]
  %141 = add nsw i32 %140, 1, !dbg !14576         ; [#uses=1 type=i32] [debug line = 387:23]
  store i32 %141, i32* %i, align 4, !dbg !14576   ; [debug line = 387:23]
  br label %16, !dbg !14576                       ; [debug line = 387:23]

; <label>:142                                     ; preds = %16
  %143 = load i32* %cntValid, align 4, !dbg !14577 ; [#uses=1 type=i32] [debug line = 434:5]
  %144 = icmp eq i32 %143, 0, !dbg !14577         ; [#uses=1 type=i1] [debug line = 434:5]
  br i1 %144, label %145, label %146, !dbg !14577 ; [debug line = 434:5]

; <label>:145                                     ; preds = %142
  store i32 4, i32* %1, !dbg !14578               ; [debug line = 435:9]
  store i32 1, i32* %4
  br label %169, !dbg !14578                      ; [debug line = 435:9]

; <label>:146                                     ; preds = %142
  %147 = load i32* %3, align 4, !dbg !14579       ; [#uses=1 type=i32] [debug line = 437:5]
  %148 = icmp sgt i32 %147, 0, !dbg !14579        ; [#uses=1 type=i1] [debug line = 437:5]
  br i1 %148, label %149, label %162, !dbg !14579 ; [debug line = 437:5]

; <label>:149                                     ; preds = %146
  %150 = load i32* %cntValid, align 4, !dbg !14580 ; [#uses=1 type=i32] [debug line = 438:9]
  %151 = load i32* %3, align 4, !dbg !14580       ; [#uses=1 type=i32] [debug line = 438:9]
  %152 = sub nsw i32 %151, 1, !dbg !14580         ; [#uses=1 type=i32] [debug line = 438:9]
  %153 = sext i32 %152 to i64, !dbg !14580        ; [#uses=1 type=i64] [debug line = 438:9]
  %154 = getelementptr inbounds %class.RubikSolver* %5, i32 0, i32 13, !dbg !14580 ; [#uses=1 type=[32 x i32]*] [debug line = 438:9]
  %155 = getelementptr inbounds [32 x i32]* %154, i32 0, i64 %153, !dbg !14580 ; [#uses=1 type=i32*] [debug line = 438:9]
  %156 = load i32* %155, align 4, !dbg !14580     ; [#uses=1 type=i32] [debug line = 438:9]
  %157 = add nsw i32 %150, %156, !dbg !14580      ; [#uses=1 type=i32] [debug line = 438:9]
  %158 = load i32* %3, align 4, !dbg !14580       ; [#uses=1 type=i32] [debug line = 438:9]
  %159 = sext i32 %158 to i64, !dbg !14580        ; [#uses=1 type=i64] [debug line = 438:9]
  %160 = getelementptr inbounds %class.RubikSolver* %5, i32 0, i32 13, !dbg !14580 ; [#uses=1 type=[32 x i32]*] [debug line = 438:9]
  %161 = getelementptr inbounds [32 x i32]* %160, i32 0, i64 %159, !dbg !14580 ; [#uses=1 type=i32*] [debug line = 438:9]
  store i32 %157, i32* %161, align 4, !dbg !14580 ; [debug line = 438:9]
  br label %168, !dbg !14580                      ; [debug line = 438:9]

; <label>:162                                     ; preds = %146
  %163 = load i32* %cntValid, align 4, !dbg !14581 ; [#uses=1 type=i32] [debug line = 440:9]
  %164 = load i32* %3, align 4, !dbg !14581       ; [#uses=1 type=i32] [debug line = 440:9]
  %165 = sext i32 %164 to i64, !dbg !14581        ; [#uses=1 type=i64] [debug line = 440:9]
  %166 = getelementptr inbounds %class.RubikSolver* %5, i32 0, i32 13, !dbg !14581 ; [#uses=1 type=[32 x i32]*] [debug line = 440:9]
  %167 = getelementptr inbounds [32 x i32]* %166, i32 0, i64 %165, !dbg !14581 ; [#uses=1 type=i32*] [debug line = 440:9]
  store i32 %163, i32* %167, align 4, !dbg !14581 ; [debug line = 440:9]
  br label %168

; <label>:168                                     ; preds = %162, %149
  store i32 0, i32* %1, !dbg !14582               ; [debug line = 441:5]
  store i32 1, i32* %4
  br label %169, !dbg !14582                      ; [debug line = 441:5]

; <label>:169                                     ; preds = %168, %145, %137
  %170 = getelementptr inbounds [18 x %class.RubikCube]* %children, i32 0, i32 0, !dbg !14583 ; [#uses=2 type=%class.RubikCube*] [debug line = 448:1]
  %171 = getelementptr inbounds %class.RubikCube* %170, i64 18, !dbg !14583 ; [#uses=1 type=%class.RubikCube*] [debug line = 448:1]
  br label %172, !dbg !14583                      ; [debug line = 448:1]

; <label>:172                                     ; preds = %172, %169
  %173 = phi %class.RubikCube* [ %171, %169 ], [ %174, %172 ], !dbg !14583 ; [#uses=1 type=%class.RubikCube*] [debug line = 448:1]
  %174 = getelementptr inbounds %class.RubikCube* %173, i64 -1, !dbg !14583 ; [#uses=3 type=%class.RubikCube*] [debug line = 448:1]
  call void @_ZN9RubikCubeD1Ev(%class.RubikCube* %174), !dbg !14583 ; [debug line = 448:1]
  %175 = icmp eq %class.RubikCube* %174, %170, !dbg !14583 ; [#uses=1 type=i1] [debug line = 448:1]
  br i1 %175, label %176, label %172, !dbg !14583 ; [debug line = 448:1]

; <label>:176                                     ; preds = %172
  %177 = load i32* %1, !dbg !14584                ; [#uses=1 type=i32] [debug line = 448:1]
  ret i32 %177, !dbg !14584                       ; [debug line = 448:1]
}

; [#uses=18]
declare void @llvm.memcpy.p0i8.p0i8.i64(i8* nocapture, i8* nocapture, i64, i32, i1) nounwind

; [#uses=0]
define void @_ZN11RubikSolver13printSolutionEv(%class.RubikSolver* %this) nounwind uwtable align 2 {
  %1 = alloca %class.RubikSolver*, align 8        ; [#uses=2 type=%class.RubikSolver**]
  %i = alloca i32, align 4                        ; [#uses=5 type=i32*]
  %2 = alloca %"class.std::basic_string", align 8 ; [#uses=3 type=%"class.std::basic_string"*]
  %i1 = alloca i32, align 4                       ; [#uses=5 type=i32*]
  %3 = alloca %"class.std::basic_string", align 8 ; [#uses=3 type=%"class.std::basic_string"*]
  store %class.RubikSolver* %this, %class.RubikSolver** %1, align 8
  call void @llvm.dbg.declare(metadata !{%class.RubikSolver** %1}, metadata !14585), !dbg !14586 ; [debug line = 557:19] [debug variable = this]
  %4 = load %class.RubikSolver** %1               ; [#uses=6 type=%class.RubikSolver*]
  call void @llvm.dbg.declare(metadata !{i32* %i}, metadata !14587), !dbg !14590 ; [debug line = 558:13] [debug variable = i]
  store i32 0, i32* %i, align 4, !dbg !14591      ; [debug line = 558:18]
  br label %5, !dbg !14591                        ; [debug line = 558:18]

; <label>:5                                       ; preds = %18, %0
  %6 = load i32* %i, align 4, !dbg !14591         ; [#uses=1 type=i32] [debug line = 558:18]
  %7 = getelementptr inbounds %class.RubikSolver* %4, i32 0, i32 16, !dbg !14591 ; [#uses=1 type=i32*] [debug line = 558:18]
  %8 = load i32* %7, align 4, !dbg !14591         ; [#uses=1 type=i32] [debug line = 558:18]
  %9 = icmp slt i32 %6, %8, !dbg !14591           ; [#uses=1 type=i1] [debug line = 558:18]
  br i1 %9, label %10, label %21, !dbg !14591     ; [debug line = 558:18]

; <label>:10                                      ; preds = %5
  %11 = load i32* %i, align 4, !dbg !14592        ; [#uses=1 type=i32] [debug line = 559:17]
  %12 = sext i32 %11 to i64, !dbg !14592          ; [#uses=1 type=i64] [debug line = 559:17]
  %13 = getelementptr inbounds %class.RubikSolver* %4, i32 0, i32 6, !dbg !14592 ; [#uses=1 type=[32 x i32]*] [debug line = 559:17]
  %14 = getelementptr inbounds [32 x i32]* %13, i32 0, i64 %12, !dbg !14592 ; [#uses=1 type=i32*] [debug line = 559:17]
  %15 = load i32* %14, align 4, !dbg !14592       ; [#uses=1 type=i32] [debug line = 559:17]
  call void @_ZN4Cube11getMoveNameEi(%"class.std::basic_string"* sret %2, i32 %15), !dbg !14592 ; [debug line = 559:17]
  %16 = call %"class.std::basic_ostream"* @_ZStlsIcSt11char_traitsIcESaIcEERSt13basic_ostreamIT_T0_ES7_RKSbIS4_S5_T1_E(%"class.std::basic_ostream"* @_ZSt4cout, %"class.std::basic_string"* %2), !dbg !14592 ; [#uses=1 type=%"class.std::basic_ostream"*] [debug line = 559:17]
  %17 = call %"class.std::basic_ostream"* @_ZStlsISt11char_traitsIcEERSt13basic_ostreamIcT_ES5_PKc(%"class.std::basic_ostream"* %16, i8* getelementptr inbounds ([2 x i8]* @.str15, i32 0, i32 0)), !dbg !14592 ; [#uses=0 type=%"class.std::basic_ostream"*] [debug line = 559:17]
  call void @_ZNSsD1Ev(%"class.std::basic_string"* %2), !dbg !14592 ; [debug line = 559:17]
  br label %18, !dbg !14592                       ; [debug line = 559:17]

; <label>:18                                      ; preds = %10
  %19 = load i32* %i, align 4, !dbg !14593        ; [#uses=1 type=i32] [debug line = 558:41]
  %20 = add nsw i32 %19, 1, !dbg !14593           ; [#uses=1 type=i32] [debug line = 558:41]
  store i32 %20, i32* %i, align 4, !dbg !14593    ; [debug line = 558:41]
  br label %5, !dbg !14593                        ; [debug line = 558:41]

; <label>:21                                      ; preds = %5
  %22 = call %"class.std::basic_ostream"* @_ZStlsISt11char_traitsIcEERSt13basic_ostreamIcT_ES5_PKc(%"class.std::basic_ostream"* @_ZSt4cout, i8* getelementptr inbounds ([3 x i8]* @.str1819, i32 0, i32 0)), !dbg !14594 ; [#uses=0 type=%"class.std::basic_ostream"*] [debug line = 560:5]
  call void @llvm.dbg.declare(metadata !{i32* %i1}, metadata !14595), !dbg !14597 ; [debug line = 561:13] [debug variable = i]
  store i32 0, i32* %i1, align 4, !dbg !14598     ; [debug line = 561:18]
  br label %23, !dbg !14598                       ; [debug line = 561:18]

; <label>:23                                      ; preds = %36, %21
  %24 = load i32* %i1, align 4, !dbg !14598       ; [#uses=1 type=i32] [debug line = 561:18]
  %25 = getelementptr inbounds %class.RubikSolver* %4, i32 0, i32 17, !dbg !14598 ; [#uses=1 type=i32*] [debug line = 561:18]
  %26 = load i32* %25, align 4, !dbg !14598       ; [#uses=1 type=i32] [debug line = 561:18]
  %27 = icmp slt i32 %24, %26, !dbg !14598        ; [#uses=1 type=i1] [debug line = 561:18]
  br i1 %27, label %28, label %39, !dbg !14598    ; [debug line = 561:18]

; <label>:28                                      ; preds = %23
  %29 = load i32* %i1, align 4, !dbg !14599       ; [#uses=1 type=i32] [debug line = 562:17]
  %30 = sext i32 %29 to i64, !dbg !14599          ; [#uses=1 type=i64] [debug line = 562:17]
  %31 = getelementptr inbounds %class.RubikSolver* %4, i32 0, i32 7, !dbg !14599 ; [#uses=1 type=[32 x i32]*] [debug line = 562:17]
  %32 = getelementptr inbounds [32 x i32]* %31, i32 0, i64 %30, !dbg !14599 ; [#uses=1 type=i32*] [debug line = 562:17]
  %33 = load i32* %32, align 4, !dbg !14599       ; [#uses=1 type=i32] [debug line = 562:17]
  call void @_ZN4Cube11getMoveNameEi(%"class.std::basic_string"* sret %3, i32 %33), !dbg !14599 ; [debug line = 562:17]
  %34 = call %"class.std::basic_ostream"* @_ZStlsIcSt11char_traitsIcESaIcEERSt13basic_ostreamIT_T0_ES7_RKSbIS4_S5_T1_E(%"class.std::basic_ostream"* @_ZSt4cout, %"class.std::basic_string"* %3), !dbg !14599 ; [#uses=1 type=%"class.std::basic_ostream"*] [debug line = 562:17]
  %35 = call %"class.std::basic_ostream"* @_ZStlsISt11char_traitsIcEERSt13basic_ostreamIcT_ES5_PKc(%"class.std::basic_ostream"* %34, i8* getelementptr inbounds ([2 x i8]* @.str15, i32 0, i32 0)), !dbg !14599 ; [#uses=0 type=%"class.std::basic_ostream"*] [debug line = 562:17]
  call void @_ZNSsD1Ev(%"class.std::basic_string"* %3), !dbg !14599 ; [debug line = 562:17]
  br label %36, !dbg !14599                       ; [debug line = 562:17]

; <label>:36                                      ; preds = %28
  %37 = load i32* %i1, align 4, !dbg !14600       ; [#uses=1 type=i32] [debug line = 561:41]
  %38 = add nsw i32 %37, 1, !dbg !14600           ; [#uses=1 type=i32] [debug line = 561:41]
  store i32 %38, i32* %i1, align 4, !dbg !14600   ; [debug line = 561:41]
  br label %23, !dbg !14600                       ; [debug line = 561:41]

; <label>:39                                      ; preds = %23
  %40 = call %"class.std::basic_ostream"* @_ZStlsISt11char_traitsIcEERSt13basic_ostreamIcT_ES5_PKc(%"class.std::basic_ostream"* @_ZSt4cout, i8* getelementptr inbounds ([2 x i8]* @.str19, i32 0, i32 0)), !dbg !14601 ; [#uses=1 type=%"class.std::basic_ostream"*] [debug line = 563:5]
  %41 = getelementptr inbounds %class.RubikSolver* %4, i32 0, i32 16, !dbg !14601 ; [#uses=1 type=i32*] [debug line = 563:5]
  %42 = load i32* %41, align 4, !dbg !14601       ; [#uses=1 type=i32] [debug line = 563:5]
  %43 = getelementptr inbounds %class.RubikSolver* %4, i32 0, i32 17, !dbg !14601 ; [#uses=1 type=i32*] [debug line = 563:5]
  %44 = load i32* %43, align 4, !dbg !14601       ; [#uses=1 type=i32] [debug line = 563:5]
  %45 = add nsw i32 %42, %44, !dbg !14601         ; [#uses=1 type=i32] [debug line = 563:5]
  %46 = call %"class.std::basic_ostream"* @_ZNSolsEi(%"class.std::basic_ostream"* %40, i32 %45), !dbg !14601 ; [#uses=1 type=%"class.std::basic_ostream"*] [debug line = 563:5]
  %47 = call %"class.std::basic_ostream"* @_ZStlsISt11char_traitsIcEERSt13basic_ostreamIcT_ES5_PKc(%"class.std::basic_ostream"* %46, i8* getelementptr inbounds ([2 x i8]* @.str20, i32 0, i32 0)), !dbg !14601 ; [#uses=1 type=%"class.std::basic_ostream"*] [debug line = 563:5]
  %48 = call %"class.std::basic_ostream"* @_ZNSolsEPFRSoS_E(%"class.std::basic_ostream"* %47, %"class.std::basic_ostream"* (%"class.std::basic_ostream"*)* @_ZSt4endlIcSt11char_traitsIcEERSt13basic_ostreamIT_T0_ES6_), !dbg !14601 ; [#uses=0 type=%"class.std::basic_ostream"*] [debug line = 563:5]
  ret void, !dbg !14602                           ; [debug line = 564:1]
}

; [#uses=2]
declare %"class.std::basic_ostream"* @_ZStlsIcSt11char_traitsIcESaIcEERSt13basic_ostreamIT_T0_ES7_RKSbIS4_S5_T1_E(%"class.std::basic_ostream"*, %"class.std::basic_string"*)

; [#uses=1]
define i32 @_ZN11RubikSolver11getSolutionEPi(%class.RubikSolver* %this, i32* %result) nounwind uwtable align 2 {
  %1 = alloca %class.RubikSolver*, align 8        ; [#uses=2 type=%class.RubikSolver**]
  %2 = alloca i32*, align 8                       ; [#uses=4 type=i32**]
  %totalCount = alloca i32, align 4               ; [#uses=8 type=i32*]
  %i = alloca i32, align 4                        ; [#uses=5 type=i32*]
  %i1 = alloca i32, align 4                       ; [#uses=5 type=i32*]
  store %class.RubikSolver* %this, %class.RubikSolver** %1, align 8
  call void @llvm.dbg.declare(metadata !{%class.RubikSolver** %1}, metadata !14603), !dbg !14604 ; [debug line = 566:18] [debug variable = this]
  store i32* %result, i32** %2, align 8
  call void @llvm.dbg.declare(metadata !{i32** %2}, metadata !14605), !dbg !14606 ; [debug line = 566:34] [debug variable = result]
  %3 = load %class.RubikSolver** %1               ; [#uses=4 type=%class.RubikSolver*]
  %4 = load i32** %2, align 8, !dbg !14607        ; [#uses=1 type=i32*] [debug line = 566:47]
  call void (...)* @_ssdm_SpecArrayDimSize(i32* %4, i32 64) nounwind, !dbg !14607 ; [debug line = 566:47]
  call void @llvm.dbg.declare(metadata !{i32* %totalCount}, metadata !14609), !dbg !14610 ; [debug line = 567:9] [debug variable = totalCount]
  store i32 0, i32* %totalCount, align 4, !dbg !14611 ; [debug line = 567:23]
  call void @llvm.dbg.declare(metadata !{i32* %i}, metadata !14612), !dbg !14614 ; [debug line = 568:13] [debug variable = i]
  store i32 0, i32* %i, align 4, !dbg !14615      ; [debug line = 568:18]
  br label %5, !dbg !14615                        ; [debug line = 568:18]

; <label>:5                                       ; preds = %22, %0
  %6 = load i32* %i, align 4, !dbg !14615         ; [#uses=1 type=i32] [debug line = 568:18]
  %7 = getelementptr inbounds %class.RubikSolver* %3, i32 0, i32 16, !dbg !14615 ; [#uses=1 type=i32*] [debug line = 568:18]
  %8 = load i32* %7, align 4, !dbg !14615         ; [#uses=1 type=i32] [debug line = 568:18]
  %9 = icmp slt i32 %6, %8, !dbg !14615           ; [#uses=1 type=i1] [debug line = 568:18]
  br i1 %9, label %10, label %25, !dbg !14615     ; [debug line = 568:18]

; <label>:10                                      ; preds = %5
  %11 = load i32* %i, align 4, !dbg !14616        ; [#uses=1 type=i32] [debug line = 569:9]
  %12 = sext i32 %11 to i64, !dbg !14616          ; [#uses=1 type=i64] [debug line = 569:9]
  %13 = getelementptr inbounds %class.RubikSolver* %3, i32 0, i32 14, !dbg !14616 ; [#uses=1 type=[32 x i32]*] [debug line = 569:9]
  %14 = getelementptr inbounds [32 x i32]* %13, i32 0, i64 %12, !dbg !14616 ; [#uses=1 type=i32*] [debug line = 569:9]
  %15 = load i32* %14, align 4, !dbg !14616       ; [#uses=1 type=i32] [debug line = 569:9]
  %16 = load i32* %totalCount, align 4, !dbg !14616 ; [#uses=1 type=i32] [debug line = 569:9]
  %17 = sext i32 %16 to i64, !dbg !14616          ; [#uses=1 type=i64] [debug line = 569:9]
  %18 = load i32** %2, align 8, !dbg !14616       ; [#uses=1 type=i32*] [debug line = 569:9]
  %19 = getelementptr inbounds i32* %18, i64 %17, !dbg !14616 ; [#uses=1 type=i32*] [debug line = 569:9]
  store i32 %15, i32* %19, align 4, !dbg !14616   ; [debug line = 569:9]
  %20 = load i32* %totalCount, align 4, !dbg !14618 ; [#uses=1 type=i32] [debug line = 570:9]
  %21 = add nsw i32 %20, 1, !dbg !14618           ; [#uses=1 type=i32] [debug line = 570:9]
  store i32 %21, i32* %totalCount, align 4, !dbg !14618 ; [debug line = 570:9]
  br label %22, !dbg !14619                       ; [debug line = 571:5]

; <label>:22                                      ; preds = %10
  %23 = load i32* %i, align 4, !dbg !14620        ; [#uses=1 type=i32] [debug line = 568:41]
  %24 = add nsw i32 %23, 1, !dbg !14620           ; [#uses=1 type=i32] [debug line = 568:41]
  store i32 %24, i32* %i, align 4, !dbg !14620    ; [debug line = 568:41]
  br label %5, !dbg !14620                        ; [debug line = 568:41]

; <label>:25                                      ; preds = %5
  call void @llvm.dbg.declare(metadata !{i32* %i1}, metadata !14621), !dbg !14623 ; [debug line = 572:13] [debug variable = i]
  store i32 0, i32* %i1, align 4, !dbg !14624     ; [debug line = 572:18]
  br label %26, !dbg !14624                       ; [debug line = 572:18]

; <label>:26                                      ; preds = %43, %25
  %27 = load i32* %i1, align 4, !dbg !14624       ; [#uses=1 type=i32] [debug line = 572:18]
  %28 = getelementptr inbounds %class.RubikSolver* %3, i32 0, i32 17, !dbg !14624 ; [#uses=1 type=i32*] [debug line = 572:18]
  %29 = load i32* %28, align 4, !dbg !14624       ; [#uses=1 type=i32] [debug line = 572:18]
  %30 = icmp slt i32 %27, %29, !dbg !14624        ; [#uses=1 type=i1] [debug line = 572:18]
  br i1 %30, label %31, label %46, !dbg !14624    ; [debug line = 572:18]

; <label>:31                                      ; preds = %26
  %32 = load i32* %i1, align 4, !dbg !14625       ; [#uses=1 type=i32] [debug line = 573:9]
  %33 = sext i32 %32 to i64, !dbg !14625          ; [#uses=1 type=i64] [debug line = 573:9]
  %34 = getelementptr inbounds %class.RubikSolver* %3, i32 0, i32 15, !dbg !14625 ; [#uses=1 type=[32 x i32]*] [debug line = 573:9]
  %35 = getelementptr inbounds [32 x i32]* %34, i32 0, i64 %33, !dbg !14625 ; [#uses=1 type=i32*] [debug line = 573:9]
  %36 = load i32* %35, align 4, !dbg !14625       ; [#uses=1 type=i32] [debug line = 573:9]
  %37 = load i32* %totalCount, align 4, !dbg !14625 ; [#uses=1 type=i32] [debug line = 573:9]
  %38 = sext i32 %37 to i64, !dbg !14625          ; [#uses=1 type=i64] [debug line = 573:9]
  %39 = load i32** %2, align 8, !dbg !14625       ; [#uses=1 type=i32*] [debug line = 573:9]
  %40 = getelementptr inbounds i32* %39, i64 %38, !dbg !14625 ; [#uses=1 type=i32*] [debug line = 573:9]
  store i32 %36, i32* %40, align 4, !dbg !14625   ; [debug line = 573:9]
  %41 = load i32* %totalCount, align 4, !dbg !14627 ; [#uses=1 type=i32] [debug line = 574:9]
